(dp0
S'test_0228'
p1
(dp2
S'params'
p3
(dp4
S'SV_NUM_MA_VALUES'
p5
csip
_unpickle_type
p6
(S'PyQt4.QtCore'
p7
S'QString'
p8
(V5
p9
tp10
tp11
Rp12
sS'NUM_PREFERRED_ONU'
p13
g6
(g7
S'QString'
p14
(V0
p15
tp16
tp17
Rp18
sS'PREDICTION_TYPE'
p19
S'FFBI'
p20
sS'SCHEDULER_SLOT_SIZE'
p21
g6
(g7
S'QString'
p22
(V64
p23
tp24
tp25
Rp26
sS'START_LAMBDA'
p27
g6
(g7
S'QString'
p28
(V1
p29
tp30
tp31
Rp32
sS'LOAD_INCR'
p33
g6
(g7
S'QString'
p34
(V0.1
p35
tp36
tp37
Rp38
sS'OLT_TYPE'
p39
S'OLT_ONLINE_NASC'
p40
sS'SIM_TIME'
p41
g6
(g7
S'QString'
p42
(V300
p43
tp44
tp45
Rp46
sS'SV_DROP_SENSITIVITY'
p47
g6
(g7
S'QString'
p48
(V1.0
p49
tp50
tp51
Rp52
sS'MAX_GRANT_SIZE'
p53
g6
(g7
S'QString'
p54
(V156876
p55
tp56
tp57
Rp58
sS'MAX_PROP_DELAY'
p59
g6
(g7
S'QString'
p60
(V50e-6
p61
tp62
tp63
Rp64
sS'SCALABLE_VIDEO_TRAFFIC'
p65
S'SCALABLE_VIDEO_OFF'
p66
sS'SV_MIN_BOUND'
p67
g6
(g7
S'QString'
p68
(V0.0005
p69
tp70
tp71
Rp72
sS'SV_MAX_BOUND'
p73
g6
(g7
S'QString'
p74
(V0.005
p75
tp76
tp77
Rp78
sS'FIXED_GRANT_SIZE'
p79
g6
(g7
S'QString'
p80
(V156876
p81
tp82
tp83
Rp84
sS'VIDEO_DBA_TYPE'
p85
S'VIDEO_DBA_LIMITED_GATE'
p86
sS'GUARD_TIME'
p87
g6
(g7
S'QString'
p88
(V1e-6
p89
tp90
tp91
Rp92
sS'TUNING_TIME'
p93
g6
(g7
S'QString'
p94
(V5e-3
p95
tp96
tp97
Rp98
sS'SIM_TRACE'
p99
S'SIM_TRACE_OFF'
p100
sS'LINK_SPEED'
p101
g6
(g7
S'QString'
p102
(V1e9
p103
tp104
tp105
Rp106
sS'END_LAMBDA'
p107
g6
(g7
S'QString'
p108
(V1
p109
tp110
tp111
Rp112
sS'VIDEO_TRAFFIC'
p113
S'VIDEO_TRAFFIC_OFF'
p114
sS'SCHEDULER_NUM_SLOT'
p115
g6
(g7
S'QString'
p116
(V180
p117
tp118
tp119
Rp120
sS'SV_DROP_LAYER_THRESHOLD'
p121
g6
(g7
S'QString'
p122
(V4
p123
tp124
tp125
Rp126
sS'NUM_RUNS'
p127
g6
(g7
S'QString'
p128
(V1
p129
tp130
tp131
Rp132
sS'VIDEO_PREDICTION'
p133
S'VIDEO_PREDICTION_OFF'
p134
sS'HEAVY_LOAD'
p135
g6
(g7
S'QString'
p136
(V2
p137
tp138
tp139
Rp140
sS'NUM_LH_WDM_ONU'
p141
g6
(g7
S'QString'
p142
(V0
p143
tp144
tp145
Rp146
sS'NUM_UH_WDM_ONU'
p147
g6
(g7
S'QString'
p148
(V0
p149
tp150
tp151
Rp152
sS'DBA_TYPE'
p153
S'DBA_LIMITED_GATE'
p154
sS'SCALABLE_VIDEO_DROPPING_ALGORITHM'
p155
S'SCALABLE_VIDEO_DROPPING_OFF'
p156
sS'SCHEDULER_MAX_WINDOW'
p157
S'0'
p158
sS'GET_TAIL'
p159
S'GET_TAIL_OFF'
p160
sS'VIDEO_TRACE_FILE'
p161
S''
p162
sS'FIXED_PROP_DELAY'
p163
S'FIXED_PROP_DELAY_OFF'
p164
sS'NUM_WDM_ONU'
p165
g6
(g7
S'QString'
p166
(V0
p167
tp168
tp169
Rp170
sS'TRAFFIC_TYPE'
p171
S'TRAFFIC_POISSON'
p172
sS'GRANT_TRACE'
p173
S'GRANT_TRACE_OFF'
p174
sS'STARVE_THRESH'
p175
g6
(g7
S'QString'
p176
(V64
p177
tp178
tp179
Rp180
sS'VIDEO_RANDOM_START'
p181
S'VIDEO_RANDOM_START_OFF'
p182
sS'AVAIL_COST_WEIGHT'
p183
g6
(g7
S'QString'
p184
(V1.0
p185
tp186
tp187
Rp188
sS'TIME_SHIFT'
p189
S'0.0'
p190
sS'WDM_TYPE'
p191
S'WDM_FIXED'
p192
sS'NUM_HEAVY_ONU'
p193
g6
(g7
S'QString'
p194
(V0
p195
tp196
tp197
Rp198
sS'NUM_SS_STREAMS'
p199
g6
(g7
S'QString'
p200
(V32
p201
tp202
tp203
Rp204
sS'NUM_ONU'
p205
g6
(g7
S'QString'
p206
(V32
p207
tp208
tp209
Rp210
sS'START_LOAD'
p211
g6
(g7
S'QString'
p212
(V0.1
p213
tp214
tp215
Rp216
sS'FIXED_PROP_DELAY_VALUE'
p217
g6
(g7
S'QString'
p218
(V50e-6
p219
tp220
tp221
Rp222
sS'END_LOAD'
p223
g6
(g7
S'QString'
p224
(V0.9
p225
tp226
tp227
Rp228
sS'SS_HURST_PARAM'
p229
g6
(g7
S'QString'
p230
(V0.75
p231
tp232
tp233
Rp234
sS'FRAME_RATE'
p235
S'30.0'
p236
sS'simID'
p237
g6
(g7
S'QString'
p238
(Vtest_0228
p239
tp240
tp241
Rp242
ssS'host'
p243
S'localhost'
p244
sS'pid'
p245
I30936
ssS'test_0229'
p246
(dp247
S'pid'
p248
I31065
sS'host'
p249
S'localhost'
p250
sS'params'
p251
(dp252
S'SV_NUM_MA_VALUES'
p253
g6
(g7
S'QString'
p254
(V5
p255
tp256
tp257
Rp258
sS'NUM_PREFERRED_ONU'
p259
g6
(g7
S'QString'
p260
(V0
p261
tp262
tp263
Rp264
sS'PREDICTION_TYPE'
p265
S'FFBI'
p266
sS'SCHEDULER_SLOT_SIZE'
p267
g6
(g7
S'QString'
p268
(V64
p269
tp270
tp271
Rp272
sS'START_LAMBDA'
p273
g6
(g7
S'QString'
p274
(V1
p275
tp276
tp277
Rp278
sS'START_LOAD'
p279
g6
(g7
S'QString'
p280
(V0.1
p281
tp282
tp283
Rp284
sS'LOAD_INCR'
p285
g6
(g7
S'QString'
p286
(V0.1
p287
tp288
tp289
Rp290
sS'OLT_TYPE'
p291
S'OLT_ONLINE_NASC'
p292
sS'SIM_TIME'
p293
g6
(g7
S'QString'
p294
(V300
p295
tp296
tp297
Rp298
sS'SV_DROP_SENSITIVITY'
p299
g6
(g7
S'QString'
p300
(V1.0
p301
tp302
tp303
Rp304
sS'MAX_GRANT_SIZE'
p305
g6
(g7
S'QString'
p306
(V156876
p307
tp308
tp309
Rp310
sS'MAX_PROP_DELAY'
p311
g6
(g7
S'QString'
p312
(V50e-6
p313
tp314
tp315
Rp316
sS'SCALABLE_VIDEO_TRAFFIC'
p317
S'SCALABLE_VIDEO_OFF'
p318
sS'SV_MIN_BOUND'
p319
g6
(g7
S'QString'
p320
(V0.0005
p321
tp322
tp323
Rp324
sS'SV_MAX_BOUND'
p325
g6
(g7
S'QString'
p326
(V0.005
p327
tp328
tp329
Rp330
sS'FIXED_GRANT_SIZE'
p331
g6
(g7
S'QString'
p332
(V156876
p333
tp334
tp335
Rp336
sS'VIDEO_DBA_TYPE'
p337
S'VIDEO_DBA_LIMITED_GATE'
p338
sS'GUARD_TIME'
p339
g6
(g7
S'QString'
p340
(V1e-6
p341
tp342
tp343
Rp344
sS'TUNING_TIME'
p345
g6
(g7
S'QString'
p346
(V5e-3
p347
tp348
tp349
Rp350
sS'END_LOAD'
p351
g6
(g7
S'QString'
p352
(V0.9
p353
tp354
tp355
Rp356
sS'LINK_SPEED'
p357
g6
(g7
S'QString'
p358
(V1e9
p359
tp360
tp361
Rp362
sS'END_LAMBDA'
p363
g6
(g7
S'QString'
p364
(V1
p365
tp366
tp367
Rp368
sS'SCHEDULER_NUM_SLOT'
p369
g6
(g7
S'QString'
p370
(V180
p371
tp372
tp373
Rp374
sS'SV_DROP_LAYER_THRESHOLD'
p375
g6
(g7
S'QString'
p376
(V4
p377
tp378
tp379
Rp380
sS'NUM_RUNS'
p381
g6
(g7
S'QString'
p382
(V1
p383
tp384
tp385
Rp386
sS'VIDEO_PREDICTION'
p387
S'VIDEO_PREDICTION_OFF'
p388
sS'HEAVY_LOAD'
p389
g6
(g7
S'QString'
p390
(V2
p391
tp392
tp393
Rp394
sS'NUM_LH_WDM_ONU'
p395
g6
(g7
S'QString'
p396
(V0
p397
tp398
tp399
Rp400
sS'NUM_UH_WDM_ONU'
p401
g6
(g7
S'QString'
p402
(V0
p403
tp404
tp405
Rp406
sS'DBA_TYPE'
p407
S'DBA_LIMITED_GATE'
p408
sS'SCALABLE_VIDEO_DROPPING_ALGORITHM'
p409
S'SCALABLE_VIDEO_DROPPING_OFF'
p410
sS'SCHEDULER_MAX_WINDOW'
p411
S'0'
p412
sS'GET_TAIL'
p413
S'GET_TAIL_OFF'
p414
sS'VIDEO_TRACE_FILE'
p415
g162
sS'FIXED_PROP_DELAY'
p416
S'FIXED_PROP_DELAY_OFF'
p417
sS'NUM_WDM_ONU'
p418
g6
(g7
S'QString'
p419
(V0
p420
tp421
tp422
Rp423
sS'TRAFFIC_TYPE'
p424
S'TRAFFIC_POISSON'
p425
sS'GRANT_TRACE'
p426
S'GRANT_TRACE_OFF'
p427
sS'STARVE_THRESH'
p428
g6
(g7
S'QString'
p429
(V64
p430
tp431
tp432
Rp433
sS'VIDEO_RANDOM_START'
p434
S'VIDEO_RANDOM_START_OFF'
p435
sS'AVAIL_COST_WEIGHT'
p436
g6
(g7
S'QString'
p437
(V1.0
p438
tp439
tp440
Rp441
sS'TIME_SHIFT'
p442
S'0.0'
p443
sS'WDM_TYPE'
p444
S'WDM_FIXED'
p445
sS'NUM_HEAVY_ONU'
p446
g6
(g7
S'QString'
p447
(V0
p448
tp449
tp450
Rp451
sS'NUM_SS_STREAMS'
p452
g6
(g7
S'QString'
p453
(V32
p454
tp455
tp456
Rp457
sS'NUM_ONU'
p458
g6
(g7
S'QString'
p459
(V32
p460
tp461
tp462
Rp463
sS'VIDEO_TRAFFIC'
p464
S'VIDEO_TRAFFIC_OFF'
p465
sS'FIXED_PROP_DELAY_VALUE'
p466
g6
(g7
S'QString'
p467
(V50e-6
p468
tp469
tp470
Rp471
sS'SIM_TRACE'
p472
S'SIM_TRACE_OFF'
p473
sS'SS_HURST_PARAM'
p474
g6
(g7
S'QString'
p475
(V0.75
p476
tp477
tp478
Rp479
sS'FRAME_RATE'
p480
S'30.0'
p481
sS'simID'
p482
g6
(g7
S'QString'
p483
(Vtest_0229
p484
tp485
tp486
Rp487
sssS'test_0222'
p488
(dp489
S'params'
p490
(dp491
S'SV_NUM_MA_VALUES'
p492
g6
(g7
S'QString'
p493
(V5
p494
tp495
tp496
Rp497
sS'NUM_PREFERRED_ONU'
p498
g6
(g7
S'QString'
p499
(V0
p500
tp501
tp502
Rp503
sS'PREDICTION_TYPE'
p504
S'FFBI'
p505
sS'SCHEDULER_SLOT_SIZE'
p506
g6
(g7
S'QString'
p507
(V64
p508
tp509
tp510
Rp511
sS'START_LAMBDA'
p512
g6
(g7
S'QString'
p513
(V1
p514
tp515
tp516
Rp517
sS'LOAD_INCR'
p518
g6
(g7
S'QString'
p519
(V0.1
p520
tp521
tp522
Rp523
sS'OLT_TYPE'
p524
S'OLT_ONLINE_NASC'
p525
sS'SIM_TIME'
p526
g6
(g7
S'QString'
p527
(V300
p528
tp529
tp530
Rp531
sS'SV_DROP_SENSITIVITY'
p532
g6
(g7
S'QString'
p533
(V1.0
p534
tp535
tp536
Rp537
sS'MAX_GRANT_SIZE'
p538
g6
(g7
S'QString'
p539
(V156876
p540
tp541
tp542
Rp543
sS'MAX_PROP_DELAY'
p544
g6
(g7
S'QString'
p545
(V50e-6
p546
tp547
tp548
Rp549
sS'SCALABLE_VIDEO_TRAFFIC'
p550
S'SCALABLE_VIDEO_OFF'
p551
sS'SV_MIN_BOUND'
p552
g6
(g7
S'QString'
p553
(V0.0005
p554
tp555
tp556
Rp557
sS'SV_MAX_BOUND'
p558
g6
(g7
S'QString'
p559
(V0.005
p560
tp561
tp562
Rp563
sS'FIXED_GRANT_SIZE'
p564
g6
(g7
S'QString'
p565
(V156876
p566
tp567
tp568
Rp569
sS'VIDEO_DBA_TYPE'
p570
S'VIDEO_DBA_LIMITED_GATE'
p571
sS'GUARD_TIME'
p572
g6
(g7
S'QString'
p573
(V1e-6
p574
tp575
tp576
Rp577
sS'TUNING_TIME'
p578
g6
(g7
S'QString'
p579
(V5e-3
p580
tp581
tp582
Rp583
sS'SIM_TRACE'
p584
S'SIM_TRACE_OFF'
p585
sS'LINK_SPEED'
p586
g6
(g7
S'QString'
p587
(V1e9
p588
tp589
tp590
Rp591
sS'END_LAMBDA'
p592
g6
(g7
S'QString'
p593
(V1
p594
tp595
tp596
Rp597
sS'VIDEO_TRAFFIC'
p598
S'VIDEO_TRAFFIC_OFF'
p599
sS'SCHEDULER_NUM_SLOT'
p600
g6
(g7
S'QString'
p601
(V180
p602
tp603
tp604
Rp605
sS'SV_DROP_LAYER_THRESHOLD'
p606
g6
(g7
S'QString'
p607
(V4
p608
tp609
tp610
Rp611
sS'NUM_RUNS'
p612
g6
(g7
S'QString'
p613
(V1
p614
tp615
tp616
Rp617
sS'VIDEO_PREDICTION'
p618
S'VIDEO_PREDICTION_OFF'
p619
sS'HEAVY_LOAD'
p620
g6
(g7
S'QString'
p621
(V2
p622
tp623
tp624
Rp625
sS'NUM_LH_WDM_ONU'
p626
g6
(g7
S'QString'
p627
(V0
p628
tp629
tp630
Rp631
sS'NUM_UH_WDM_ONU'
p632
g6
(g7
S'QString'
p633
(V0
p634
tp635
tp636
Rp637
sS'DBA_TYPE'
p638
S'DBA_LIMITED_GATE'
p639
sS'SCALABLE_VIDEO_DROPPING_ALGORITHM'
p640
S'SCALABLE_VIDEO_DROPPING_OFF'
p641
sS'SCHEDULER_MAX_WINDOW'
p642
S'0'
p643
sS'GET_TAIL'
p644
S'GET_TAIL_OFF'
p645
sS'VIDEO_TRACE_FILE'
p646
g162
sS'FIXED_PROP_DELAY'
p647
S'FIXED_PROP_DELAY_OFF'
p648
sS'NUM_WDM_ONU'
p649
g6
(g7
S'QString'
p650
(V0
p651
tp652
tp653
Rp654
sS'TRAFFIC_TYPE'
p655
S'TRAFFIC_POISSON'
p656
sS'GRANT_TRACE'
p657
S'GRANT_TRACE_OFF'
p658
sS'STARVE_THRESH'
p659
g6
(g7
S'QString'
p660
(V64
p661
tp662
tp663
Rp664
sS'VIDEO_RANDOM_START'
p665
S'VIDEO_RANDOM_START_OFF'
p666
sS'AVAIL_COST_WEIGHT'
p667
g6
(g7
S'QString'
p668
(V1.0
p669
tp670
tp671
Rp672
sS'TIME_SHIFT'
p673
S'0.0'
p674
sS'WDM_TYPE'
p675
S'WDM_FIXED'
p676
sS'NUM_HEAVY_ONU'
p677
g6
(g7
S'QString'
p678
(V0
p679
tp680
tp681
Rp682
sS'NUM_SS_STREAMS'
p683
g6
(g7
S'QString'
p684
(V32
p685
tp686
tp687
Rp688
sS'NUM_ONU'
p689
g6
(g7
S'QString'
p690
(V32
p691
tp692
tp693
Rp694
sS'START_LOAD'
p695
g6
(g7
S'QString'
p696
(V0.1
p697
tp698
tp699
Rp700
sS'FIXED_PROP_DELAY_VALUE'
p701
g6
(g7
S'QString'
p702
(V50e-6
p703
tp704
tp705
Rp706
sS'END_LOAD'
p707
g6
(g7
S'QString'
p708
(V0.9
p709
tp710
tp711
Rp712
sS'SS_HURST_PARAM'
p713
g6
(g7
S'QString'
p714
(V0.75
p715
tp716
tp717
Rp718
sS'FRAME_RATE'
p719
S'30.0'
p720
sS'simID'
p721
g6
(g7
S'QString'
p722
(Vtest_0222
p723
tp724
tp725
Rp726
ssS'host'
p727
S'localhost'
p728
sS'pid'
p729
I30158
ssS'test_0223'
p730
(dp731
S'pid'
p732
I30295
sS'host'
p733
S'localhost'
p734
sS'params'
p735
(dp736
S'SV_NUM_MA_VALUES'
p737
g6
(g7
S'QString'
p738
(V5
p739
tp740
tp741
Rp742
sS'NUM_PREFERRED_ONU'
p743
g6
(g7
S'QString'
p744
(V0
p745
tp746
tp747
Rp748
sS'PREDICTION_TYPE'
p749
S'FFBI'
p750
sS'SCHEDULER_SLOT_SIZE'
p751
g6
(g7
S'QString'
p752
(V64
p753
tp754
tp755
Rp756
sS'START_LAMBDA'
p757
g6
(g7
S'QString'
p758
(V1
p759
tp760
tp761
Rp762
sS'START_LOAD'
p763
g6
(g7
S'QString'
p764
(V0.1
p765
tp766
tp767
Rp768
sS'LOAD_INCR'
p769
g6
(g7
S'QString'
p770
(V0.1
p771
tp772
tp773
Rp774
sS'OLT_TYPE'
p775
S'OLT_ONLINE_NASC'
p776
sS'SIM_TIME'
p777
g6
(g7
S'QString'
p778
(V300
p779
tp780
tp781
Rp782
sS'SV_DROP_SENSITIVITY'
p783
g6
(g7
S'QString'
p784
(V1.0
p785
tp786
tp787
Rp788
sS'MAX_GRANT_SIZE'
p789
g6
(g7
S'QString'
p790
(V156876
p791
tp792
tp793
Rp794
sS'MAX_PROP_DELAY'
p795
g6
(g7
S'QString'
p796
(V50e-6
p797
tp798
tp799
Rp800
sS'SCALABLE_VIDEO_TRAFFIC'
p801
S'SCALABLE_VIDEO_OFF'
p802
sS'SV_MIN_BOUND'
p803
g6
(g7
S'QString'
p804
(V0.0005
p805
tp806
tp807
Rp808
sS'SV_MAX_BOUND'
p809
g6
(g7
S'QString'
p810
(V0.005
p811
tp812
tp813
Rp814
sS'FIXED_GRANT_SIZE'
p815
g6
(g7
S'QString'
p816
(V156876
p817
tp818
tp819
Rp820
sS'VIDEO_DBA_TYPE'
p821
S'VIDEO_DBA_LIMITED_GATE'
p822
sS'GUARD_TIME'
p823
g6
(g7
S'QString'
p824
(V1e-6
p825
tp826
tp827
Rp828
sS'TUNING_TIME'
p829
g6
(g7
S'QString'
p830
(V5e-3
p831
tp832
tp833
Rp834
sS'END_LOAD'
p835
g6
(g7
S'QString'
p836
(V0.9
p837
tp838
tp839
Rp840
sS'LINK_SPEED'
p841
g6
(g7
S'QString'
p842
(V1e9
p843
tp844
tp845
Rp846
sS'END_LAMBDA'
p847
g6
(g7
S'QString'
p848
(V1
p849
tp850
tp851
Rp852
sS'SCHEDULER_NUM_SLOT'
p853
g6
(g7
S'QString'
p854
(V180
p855
tp856
tp857
Rp858
sS'SV_DROP_LAYER_THRESHOLD'
p859
g6
(g7
S'QString'
p860
(V4
p861
tp862
tp863
Rp864
sS'NUM_RUNS'
p865
g6
(g7
S'QString'
p866
(V1
p867
tp868
tp869
Rp870
sS'VIDEO_PREDICTION'
p871
S'VIDEO_PREDICTION_OFF'
p872
sS'HEAVY_LOAD'
p873
g6
(g7
S'QString'
p874
(V2
p875
tp876
tp877
Rp878
sS'NUM_LH_WDM_ONU'
p879
g6
(g7
S'QString'
p880
(V0
p881
tp882
tp883
Rp884
sS'NUM_UH_WDM_ONU'
p885
g6
(g7
S'QString'
p886
(V0
p887
tp888
tp889
Rp890
sS'DBA_TYPE'
p891
S'DBA_LIMITED_GATE'
p892
sS'SCALABLE_VIDEO_DROPPING_ALGORITHM'
p893
S'SCALABLE_VIDEO_DROPPING_OFF'
p894
sS'SCHEDULER_MAX_WINDOW'
p895
S'0'
p896
sS'GET_TAIL'
p897
S'GET_TAIL_OFF'
p898
sS'VIDEO_TRACE_FILE'
p899
g162
sS'FIXED_PROP_DELAY'
p900
S'FIXED_PROP_DELAY_OFF'
p901
sS'NUM_WDM_ONU'
p902
g6
(g7
S'QString'
p903
(V0
p904
tp905
tp906
Rp907
sS'TRAFFIC_TYPE'
p908
S'TRAFFIC_POISSON'
p909
sS'GRANT_TRACE'
p910
S'GRANT_TRACE_OFF'
p911
sS'STARVE_THRESH'
p912
g6
(g7
S'QString'
p913
(V64
p914
tp915
tp916
Rp917
sS'VIDEO_RANDOM_START'
p918
S'VIDEO_RANDOM_START_OFF'
p919
sS'AVAIL_COST_WEIGHT'
p920
g6
(g7
S'QString'
p921
(V1.0
p922
tp923
tp924
Rp925
sS'TIME_SHIFT'
p926
S'0.0'
p927
sS'WDM_TYPE'
p928
S'WDM_FIXED'
p929
sS'NUM_HEAVY_ONU'
p930
g6
(g7
S'QString'
p931
(V0
p932
tp933
tp934
Rp935
sS'NUM_SS_STREAMS'
p936
g6
(g7
S'QString'
p937
(V32
p938
tp939
tp940
Rp941
sS'NUM_ONU'
p942
g6
(g7
S'QString'
p943
(V32
p944
tp945
tp946
Rp947
sS'VIDEO_TRAFFIC'
p948
S'VIDEO_TRAFFIC_OFF'
p949
sS'FIXED_PROP_DELAY_VALUE'
p950
g6
(g7
S'QString'
p951
(V50e-6
p952
tp953
tp954
Rp955
sS'SIM_TRACE'
p956
S'SIM_TRACE_OFF'
p957
sS'SS_HURST_PARAM'
p958
g6
(g7
S'QString'
p959
(V0.75
p960
tp961
tp962
Rp963
sS'FRAME_RATE'
p964
S'30.0'
p965
sS'simID'
p966
g6
(g7
S'QString'
p967
(Vtest_0223
p968
tp969
tp970
Rp971
sssS'test_0220'
p972
(dp973
S'params'
p974
(dp975
S'SV_NUM_MA_VALUES'
p976
g6
(g7
S'QString'
p977
(V5
p978
tp979
tp980
Rp981
sS'NUM_PREFERRED_ONU'
p982
g6
(g7
S'QString'
p983
(V0
p984
tp985
tp986
Rp987
sS'PREDICTION_TYPE'
p988
S'FFBI'
p989
sS'SCHEDULER_SLOT_SIZE'
p990
g6
(g7
S'QString'
p991
(V64
p992
tp993
tp994
Rp995
sS'START_LAMBDA'
p996
g6
(g7
S'QString'
p997
(V1
p998
tp999
tp1000
Rp1001
sS'LOAD_INCR'
p1002
g6
(g7
S'QString'
p1003
(V0.1
p1004
tp1005
tp1006
Rp1007
sS'OLT_TYPE'
p1008
S'OLT_SPD'
p1009
sS'SIM_TIME'
p1010
g6
(g7
S'QString'
p1011
(V300
p1012
tp1013
tp1014
Rp1015
sS'SV_DROP_SENSITIVITY'
p1016
g6
(g7
S'QString'
p1017
(V1.0
p1018
tp1019
tp1020
Rp1021
sS'MAX_GRANT_SIZE'
p1022
g6
(g7
S'QString'
p1023
(V156876
p1024
tp1025
tp1026
Rp1027
sS'MAX_PROP_DELAY'
p1028
g6
(g7
S'QString'
p1029
(V50e-6
p1030
tp1031
tp1032
Rp1033
sS'SCALABLE_VIDEO_TRAFFIC'
p1034
S'SCALABLE_VIDEO_OFF'
p1035
sS'SV_MIN_BOUND'
p1036
g6
(g7
S'QString'
p1037
(V0.0005
p1038
tp1039
tp1040
Rp1041
sS'SV_MAX_BOUND'
p1042
g6
(g7
S'QString'
p1043
(V0.005
p1044
tp1045
tp1046
Rp1047
sS'FIXED_GRANT_SIZE'
p1048
g6
(g7
S'QString'
p1049
(V156876
p1050
tp1051
tp1052
Rp1053
sS'VIDEO_DBA_TYPE'
p1054
S'VIDEO_DBA_LIMITED_GATE'
p1055
sS'GUARD_TIME'
p1056
g6
(g7
S'QString'
p1057
(V1e-6
p1058
tp1059
tp1060
Rp1061
sS'TUNING_TIME'
p1062
g6
(g7
S'QString'
p1063
(V5e-3
p1064
tp1065
tp1066
Rp1067
sS'SIM_TRACE'
p1068
S'SIM_TRACE_OFF'
p1069
sS'LINK_SPEED'
p1070
g6
(g7
S'QString'
p1071
(V1e9
p1072
tp1073
tp1074
Rp1075
sS'END_LAMBDA'
p1076
g6
(g7
S'QString'
p1077
(V1
p1078
tp1079
tp1080
Rp1081
sS'VIDEO_TRAFFIC'
p1082
S'VIDEO_TRAFFIC_OFF'
p1083
sS'SCHEDULER_NUM_SLOT'
p1084
g6
(g7
S'QString'
p1085
(V180
p1086
tp1087
tp1088
Rp1089
sS'SV_DROP_LAYER_THRESHOLD'
p1090
g6
(g7
S'QString'
p1091
(V4
p1092
tp1093
tp1094
Rp1095
sS'NUM_RUNS'
p1096
g6
(g7
S'QString'
p1097
(V1
p1098
tp1099
tp1100
Rp1101
sS'VIDEO_PREDICTION'
p1102
S'VIDEO_PREDICTION_OFF'
p1103
sS'HEAVY_LOAD'
p1104
g6
(g7
S'QString'
p1105
(V2
p1106
tp1107
tp1108
Rp1109
sS'NUM_LH_WDM_ONU'
p1110
g6
(g7
S'QString'
p1111
(V0
p1112
tp1113
tp1114
Rp1115
sS'NUM_UH_WDM_ONU'
p1116
g6
(g7
S'QString'
p1117
(V0
p1118
tp1119
tp1120
Rp1121
sS'DBA_TYPE'
p1122
S'DBA_LIMITED_GATE'
p1123
sS'SCALABLE_VIDEO_DROPPING_ALGORITHM'
p1124
S'SCALABLE_VIDEO_DROPPING_OFF'
p1125
sS'SCHEDULER_MAX_WINDOW'
p1126
S'0'
p1127
sS'GET_TAIL'
p1128
S'GET_TAIL_OFF'
p1129
sS'VIDEO_TRACE_FILE'
p1130
g162
sS'FIXED_PROP_DELAY'
p1131
S'FIXED_PROP_DELAY_OFF'
p1132
sS'NUM_WDM_ONU'
p1133
g6
(g7
S'QString'
p1134
(V0
p1135
tp1136
tp1137
Rp1138
sS'TRAFFIC_TYPE'
p1139
S'TRAFFIC_POISSON'
p1140
sS'GRANT_TRACE'
p1141
S'GRANT_TRACE_OFF'
p1142
sS'STARVE_THRESH'
p1143
g6
(g7
S'QString'
p1144
(V64
p1145
tp1146
tp1147
Rp1148
sS'VIDEO_RANDOM_START'
p1149
S'VIDEO_RANDOM_START_OFF'
p1150
sS'AVAIL_COST_WEIGHT'
p1151
g6
(g7
S'QString'
p1152
(V1.0
p1153
tp1154
tp1155
Rp1156
sS'TIME_SHIFT'
p1157
S'0.0'
p1158
sS'WDM_TYPE'
p1159
S'WDM_FIXED'
p1160
sS'NUM_HEAVY_ONU'
p1161
g6
(g7
S'QString'
p1162
(V0
p1163
tp1164
tp1165
Rp1166
sS'NUM_SS_STREAMS'
p1167
g6
(g7
S'QString'
p1168
(V32
p1169
tp1170
tp1171
Rp1172
sS'NUM_ONU'
p1173
g6
(g7
S'QString'
p1174
(V32
p1175
tp1176
tp1177
Rp1178
sS'START_LOAD'
p1179
g6
(g7
S'QString'
p1180
(V0.1
p1181
tp1182
tp1183
Rp1184
sS'FIXED_PROP_DELAY_VALUE'
p1185
g6
(g7
S'QString'
p1186
(V50e-6
p1187
tp1188
tp1189
Rp1190
sS'END_LOAD'
p1191
g6
(g7
S'QString'
p1192
(V0.9
p1193
tp1194
tp1195
Rp1196
sS'SS_HURST_PARAM'
p1197
g6
(g7
S'QString'
p1198
(V0.75
p1199
tp1200
tp1201
Rp1202
sS'FRAME_RATE'
p1203
S'30.0'
p1204
sS'simID'
p1205
g6
(g7
S'QString'
p1206
(Vtest_0220
p1207
tp1208
tp1209
Rp1210
ssS'host'
p1211
S'localhost'
p1212
sS'pid'
p1213
I29936
ssS'test_0221'
p1214
(dp1215
S'pid'
p1216
I30044
sS'host'
p1217
S'localhost'
p1218
sS'params'
p1219
(dp1220
S'SV_NUM_MA_VALUES'
p1221
g6
(g7
S'QString'
p1222
(V5
p1223
tp1224
tp1225
Rp1226
sS'NUM_PREFERRED_ONU'
p1227
g6
(g7
S'QString'
p1228
(V0
p1229
tp1230
tp1231
Rp1232
sS'PREDICTION_TYPE'
p1233
S'FFBI'
p1234
sS'SCHEDULER_SLOT_SIZE'
p1235
g6
(g7
S'QString'
p1236
(V64
p1237
tp1238
tp1239
Rp1240
sS'START_LAMBDA'
p1241
g6
(g7
S'QString'
p1242
(V1
p1243
tp1244
tp1245
Rp1246
sS'START_LOAD'
p1247
g6
(g7
S'QString'
p1248
(V0.1
p1249
tp1250
tp1251
Rp1252
sS'LOAD_INCR'
p1253
g6
(g7
S'QString'
p1254
(V0.1
p1255
tp1256
tp1257
Rp1258
sS'OLT_TYPE'
p1259
S'OLT_LPD'
p1260
sS'SIM_TIME'
p1261
g6
(g7
S'QString'
p1262
(V300
p1263
tp1264
tp1265
Rp1266
sS'SV_DROP_SENSITIVITY'
p1267
g6
(g7
S'QString'
p1268
(V1.0
p1269
tp1270
tp1271
Rp1272
sS'MAX_GRANT_SIZE'
p1273
g6
(g7
S'QString'
p1274
(V156876
p1275
tp1276
tp1277
Rp1278
sS'MAX_PROP_DELAY'
p1279
g6
(g7
S'QString'
p1280
(V50e-6
p1281
tp1282
tp1283
Rp1284
sS'SCALABLE_VIDEO_TRAFFIC'
p1285
S'SCALABLE_VIDEO_OFF'
p1286
sS'SV_MIN_BOUND'
p1287
g6
(g7
S'QString'
p1288
(V0.0005
p1289
tp1290
tp1291
Rp1292
sS'SV_MAX_BOUND'
p1293
g6
(g7
S'QString'
p1294
(V0.005
p1295
tp1296
tp1297
Rp1298
sS'FIXED_GRANT_SIZE'
p1299
g6
(g7
S'QString'
p1300
(V156876
p1301
tp1302
tp1303
Rp1304
sS'VIDEO_DBA_TYPE'
p1305
S'VIDEO_DBA_LIMITED_GATE'
p1306
sS'GUARD_TIME'
p1307
g6
(g7
S'QString'
p1308
(V1e-6
p1309
tp1310
tp1311
Rp1312
sS'TUNING_TIME'
p1313
g6
(g7
S'QString'
p1314
(V5e-3
p1315
tp1316
tp1317
Rp1318
sS'END_LOAD'
p1319
g6
(g7
S'QString'
p1320
(V0.9
p1321
tp1322
tp1323
Rp1324
sS'LINK_SPEED'
p1325
g6
(g7
S'QString'
p1326
(V1e9
p1327
tp1328
tp1329
Rp1330
sS'END_LAMBDA'
p1331
g6
(g7
S'QString'
p1332
(V1
p1333
tp1334
tp1335
Rp1336
sS'SCHEDULER_NUM_SLOT'
p1337
g6
(g7
S'QString'
p1338
(V180
p1339
tp1340
tp1341
Rp1342
sS'SV_DROP_LAYER_THRESHOLD'
p1343
g6
(g7
S'QString'
p1344
(V4
p1345
tp1346
tp1347
Rp1348
sS'NUM_RUNS'
p1349
g6
(g7
S'QString'
p1350
(V1
p1351
tp1352
tp1353
Rp1354
sS'VIDEO_PREDICTION'
p1355
S'VIDEO_PREDICTION_OFF'
p1356
sS'HEAVY_LOAD'
p1357
g6
(g7
S'QString'
p1358
(V2
p1359
tp1360
tp1361
Rp1362
sS'NUM_LH_WDM_ONU'
p1363
g6
(g7
S'QString'
p1364
(V0
p1365
tp1366
tp1367
Rp1368
sS'NUM_UH_WDM_ONU'
p1369
g6
(g7
S'QString'
p1370
(V0
p1371
tp1372
tp1373
Rp1374
sS'DBA_TYPE'
p1375
S'DBA_LIMITED_GATE'
p1376
sS'SCALABLE_VIDEO_DROPPING_ALGORITHM'
p1377
S'SCALABLE_VIDEO_DROPPING_OFF'
p1378
sS'SCHEDULER_MAX_WINDOW'
p1379
S'0'
p1380
sS'GET_TAIL'
p1381
S'GET_TAIL_OFF'
p1382
sS'VIDEO_TRACE_FILE'
p1383
g162
sS'FIXED_PROP_DELAY'
p1384
S'FIXED_PROP_DELAY_OFF'
p1385
sS'NUM_WDM_ONU'
p1386
g6
(g7
S'QString'
p1387
(V0
p1388
tp1389
tp1390
Rp1391
sS'TRAFFIC_TYPE'
p1392
S'TRAFFIC_POISSON'
p1393
sS'GRANT_TRACE'
p1394
S'GRANT_TRACE_OFF'
p1395
sS'STARVE_THRESH'
p1396
g6
(g7
S'QString'
p1397
(V64
p1398
tp1399
tp1400
Rp1401
sS'VIDEO_RANDOM_START'
p1402
S'VIDEO_RANDOM_START_OFF'
p1403
sS'AVAIL_COST_WEIGHT'
p1404
g6
(g7
S'QString'
p1405
(V1.0
p1406
tp1407
tp1408
Rp1409
sS'TIME_SHIFT'
p1410
S'0.0'
p1411
sS'WDM_TYPE'
p1412
S'WDM_FIXED'
p1413
sS'NUM_HEAVY_ONU'
p1414
g6
(g7
S'QString'
p1415
(V0
p1416
tp1417
tp1418
Rp1419
sS'NUM_SS_STREAMS'
p1420
g6
(g7
S'QString'
p1421
(V32
p1422
tp1423
tp1424
Rp1425
sS'NUM_ONU'
p1426
g6
(g7
S'QString'
p1427
(V32
p1428
tp1429
tp1430
Rp1431
sS'VIDEO_TRAFFIC'
p1432
S'VIDEO_TRAFFIC_OFF'
p1433
sS'FIXED_PROP_DELAY_VALUE'
p1434
g6
(g7
S'QString'
p1435
(V50e-6
p1436
tp1437
tp1438
Rp1439
sS'SIM_TRACE'
p1440
S'SIM_TRACE_OFF'
p1441
sS'SS_HURST_PARAM'
p1442
g6
(g7
S'QString'
p1443
(V0.75
p1444
tp1445
tp1446
Rp1447
sS'FRAME_RATE'
p1448
S'30.0'
p1449
sS'simID'
p1450
g6
(g7
S'QString'
p1451
(Vtest_0221
p1452
tp1453
tp1454
Rp1455
sssS'test_0226'
p1456
(dp1457
S'params'
p1458
(dp1459
S'SV_NUM_MA_VALUES'
p1460
g6
(g7
S'QString'
p1461
(V5
p1462
tp1463
tp1464
Rp1465
sS'NUM_PREFERRED_ONU'
p1466
g6
(g7
S'QString'
p1467
(V0
p1468
tp1469
tp1470
Rp1471
sS'PREDICTION_TYPE'
p1472
S'FFBI'
p1473
sS'SCHEDULER_SLOT_SIZE'
p1474
g6
(g7
S'QString'
p1475
(V64
p1476
tp1477
tp1478
Rp1479
sS'START_LAMBDA'
p1480
g6
(g7
S'QString'
p1481
(V1
p1482
tp1483
tp1484
Rp1485
sS'LOAD_INCR'
p1486
g6
(g7
S'QString'
p1487
(V0.1
p1488
tp1489
tp1490
Rp1491
sS'OLT_TYPE'
p1492
S'OLT_ONLINE_NASC'
p1493
sS'SIM_TIME'
p1494
g6
(g7
S'QString'
p1495
(V300
p1496
tp1497
tp1498
Rp1499
sS'SV_DROP_SENSITIVITY'
p1500
g6
(g7
S'QString'
p1501
(V1.0
p1502
tp1503
tp1504
Rp1505
sS'MAX_GRANT_SIZE'
p1506
g6
(g7
S'QString'
p1507
(V156876
p1508
tp1509
tp1510
Rp1511
sS'MAX_PROP_DELAY'
p1512
g6
(g7
S'QString'
p1513
(V50e-6
p1514
tp1515
tp1516
Rp1517
sS'SCALABLE_VIDEO_TRAFFIC'
p1518
S'SCALABLE_VIDEO_OFF'
p1519
sS'SV_MIN_BOUND'
p1520
g6
(g7
S'QString'
p1521
(V0.0005
p1522
tp1523
tp1524
Rp1525
sS'SV_MAX_BOUND'
p1526
g6
(g7
S'QString'
p1527
(V0.005
p1528
tp1529
tp1530
Rp1531
sS'FIXED_GRANT_SIZE'
p1532
g6
(g7
S'QString'
p1533
(V156876
p1534
tp1535
tp1536
Rp1537
sS'VIDEO_DBA_TYPE'
p1538
S'VIDEO_DBA_LIMITED_GATE'
p1539
sS'GUARD_TIME'
p1540
g6
(g7
S'QString'
p1541
(V1e-6
p1542
tp1543
tp1544
Rp1545
sS'TUNING_TIME'
p1546
g6
(g7
S'QString'
p1547
(V5e-3
p1548
tp1549
tp1550
Rp1551
sS'SIM_TRACE'
p1552
S'SIM_TRACE_OFF'
p1553
sS'LINK_SPEED'
p1554
g6
(g7
S'QString'
p1555
(V1e9
p1556
tp1557
tp1558
Rp1559
sS'END_LAMBDA'
p1560
g6
(g7
S'QString'
p1561
(V1
p1562
tp1563
tp1564
Rp1565
sS'VIDEO_TRAFFIC'
p1566
S'VIDEO_TRAFFIC_OFF'
p1567
sS'SCHEDULER_NUM_SLOT'
p1568
g6
(g7
S'QString'
p1569
(V180
p1570
tp1571
tp1572
Rp1573
sS'SV_DROP_LAYER_THRESHOLD'
p1574
g6
(g7
S'QString'
p1575
(V4
p1576
tp1577
tp1578
Rp1579
sS'NUM_RUNS'
p1580
g6
(g7
S'QString'
p1581
(V1
p1582
tp1583
tp1584
Rp1585
sS'VIDEO_PREDICTION'
p1586
S'VIDEO_PREDICTION_OFF'
p1587
sS'HEAVY_LOAD'
p1588
g6
(g7
S'QString'
p1589
(V2
p1590
tp1591
tp1592
Rp1593
sS'NUM_LH_WDM_ONU'
p1594
g6
(g7
S'QString'
p1595
(V0
p1596
tp1597
tp1598
Rp1599
sS'NUM_UH_WDM_ONU'
p1600
g6
(g7
S'QString'
p1601
(V0
p1602
tp1603
tp1604
Rp1605
sS'DBA_TYPE'
p1606
S'DBA_LIMITED_GATE'
p1607
sS'SCALABLE_VIDEO_DROPPING_ALGORITHM'
p1608
S'SCALABLE_VIDEO_DROPPING_OFF'
p1609
sS'SCHEDULER_MAX_WINDOW'
p1610
S'0'
p1611
sS'GET_TAIL'
p1612
S'GET_TAIL_OFF'
p1613
sS'VIDEO_TRACE_FILE'
p1614
g162
sS'FIXED_PROP_DELAY'
p1615
S'FIXED_PROP_DELAY_OFF'
p1616
sS'NUM_WDM_ONU'
p1617
g6
(g7
S'QString'
p1618
(V0
p1619
tp1620
tp1621
Rp1622
sS'TRAFFIC_TYPE'
p1623
S'TRAFFIC_POISSON'
p1624
sS'GRANT_TRACE'
p1625
S'GRANT_TRACE_OFF'
p1626
sS'STARVE_THRESH'
p1627
g6
(g7
S'QString'
p1628
(V64
p1629
tp1630
tp1631
Rp1632
sS'VIDEO_RANDOM_START'
p1633
S'VIDEO_RANDOM_START_OFF'
p1634
sS'AVAIL_COST_WEIGHT'
p1635
g6
(g7
S'QString'
p1636
(V1.0
p1637
tp1638
tp1639
Rp1640
sS'TIME_SHIFT'
p1641
S'0.0'
p1642
sS'WDM_TYPE'
p1643
S'WDM_FIXED'
p1644
sS'NUM_HEAVY_ONU'
p1645
g6
(g7
S'QString'
p1646
(V0
p1647
tp1648
tp1649
Rp1650
sS'NUM_SS_STREAMS'
p1651
g6
(g7
S'QString'
p1652
(V32
p1653
tp1654
tp1655
Rp1656
sS'NUM_ONU'
p1657
g6
(g7
S'QString'
p1658
(V32
p1659
tp1660
tp1661
Rp1662
sS'START_LOAD'
p1663
g6
(g7
S'QString'
p1664
(V0.1
p1665
tp1666
tp1667
Rp1668
sS'FIXED_PROP_DELAY_VALUE'
p1669
g6
(g7
S'QString'
p1670
(V50e-6
p1671
tp1672
tp1673
Rp1674
sS'END_LOAD'
p1675
g6
(g7
S'QString'
p1676
(V0.9
p1677
tp1678
tp1679
Rp1680
sS'SS_HURST_PARAM'
p1681
g6
(g7
S'QString'
p1682
(V0.75
p1683
tp1684
tp1685
Rp1686
sS'FRAME_RATE'
p1687
S'30.0'
p1688
sS'simID'
p1689
g6
(g7
S'QString'
p1690
(Vtest_0226
p1691
tp1692
tp1693
Rp1694
ssS'host'
p1695
S'localhost'
p1696
sS'pid'
p1697
I30705
ssS'test_0227'
p1698
(dp1699
S'pid'
p1700
I30814
sS'host'
p1701
S'localhost'
p1702
sS'params'
p1703
(dp1704
S'SV_NUM_MA_VALUES'
p1705
g6
(g7
S'QString'
p1706
(V5
p1707
tp1708
tp1709
Rp1710
sS'NUM_PREFERRED_ONU'
p1711
g6
(g7
S'QString'
p1712
(V0
p1713
tp1714
tp1715
Rp1716
sS'PREDICTION_TYPE'
p1717
S'FFBI'
p1718
sS'SCHEDULER_SLOT_SIZE'
p1719
g6
(g7
S'QString'
p1720
(V64
p1721
tp1722
tp1723
Rp1724
sS'START_LAMBDA'
p1725
g6
(g7
S'QString'
p1726
(V1
p1727
tp1728
tp1729
Rp1730
sS'START_LOAD'
p1731
g6
(g7
S'QString'
p1732
(V0.1
p1733
tp1734
tp1735
Rp1736
sS'LOAD_INCR'
p1737
g6
(g7
S'QString'
p1738
(V0.1
p1739
tp1740
tp1741
Rp1742
sS'OLT_TYPE'
p1743
S'OLT_ONLINE_NASC'
p1744
sS'SIM_TIME'
p1745
g6
(g7
S'QString'
p1746
(V300
p1747
tp1748
tp1749
Rp1750
sS'SV_DROP_SENSITIVITY'
p1751
g6
(g7
S'QString'
p1752
(V1.0
p1753
tp1754
tp1755
Rp1756
sS'MAX_GRANT_SIZE'
p1757
g6
(g7
S'QString'
p1758
(V156876
p1759
tp1760
tp1761
Rp1762
sS'MAX_PROP_DELAY'
p1763
g6
(g7
S'QString'
p1764
(V50e-6
p1765
tp1766
tp1767
Rp1768
sS'SCALABLE_VIDEO_TRAFFIC'
p1769
S'SCALABLE_VIDEO_OFF'
p1770
sS'SV_MIN_BOUND'
p1771
g6
(g7
S'QString'
p1772
(V0.0005
p1773
tp1774
tp1775
Rp1776
sS'SV_MAX_BOUND'
p1777
g6
(g7
S'QString'
p1778
(V0.005
p1779
tp1780
tp1781
Rp1782
sS'FIXED_GRANT_SIZE'
p1783
g6
(g7
S'QString'
p1784
(V156876
p1785
tp1786
tp1787
Rp1788
sS'VIDEO_DBA_TYPE'
p1789
S'VIDEO_DBA_LIMITED_GATE'
p1790
sS'GUARD_TIME'
p1791
g6
(g7
S'QString'
p1792
(V1e-6
p1793
tp1794
tp1795
Rp1796
sS'TUNING_TIME'
p1797
g6
(g7
S'QString'
p1798
(V5e-3
p1799
tp1800
tp1801
Rp1802
sS'END_LOAD'
p1803
g6
(g7
S'QString'
p1804
(V0.9
p1805
tp1806
tp1807
Rp1808
sS'LINK_SPEED'
p1809
g6
(g7
S'QString'
p1810
(V1e9
p1811
tp1812
tp1813
Rp1814
sS'END_LAMBDA'
p1815
g6
(g7
S'QString'
p1816
(V1
p1817
tp1818
tp1819
Rp1820
sS'SCHEDULER_NUM_SLOT'
p1821
g6
(g7
S'QString'
p1822
(V180
p1823
tp1824
tp1825
Rp1826
sS'SV_DROP_LAYER_THRESHOLD'
p1827
g6
(g7
S'QString'
p1828
(V4
p1829
tp1830
tp1831
Rp1832
sS'NUM_RUNS'
p1833
g6
(g7
S'QString'
p1834
(V1
p1835
tp1836
tp1837
Rp1838
sS'VIDEO_PREDICTION'
p1839
S'VIDEO_PREDICTION_OFF'
p1840
sS'HEAVY_LOAD'
p1841
g6
(g7
S'QString'
p1842
(V2
p1843
tp1844
tp1845
Rp1846
sS'NUM_LH_WDM_ONU'
p1847
g6
(g7
S'QString'
p1848
(V0
p1849
tp1850
tp1851
Rp1852
sS'NUM_UH_WDM_ONU'
p1853
g6
(g7
S'QString'
p1854
(V0
p1855
tp1856
tp1857
Rp1858
sS'DBA_TYPE'
p1859
S'DBA_LIMITED_GATE'
p1860
sS'SCALABLE_VIDEO_DROPPING_ALGORITHM'
p1861
S'SCALABLE_VIDEO_DROPPING_OFF'
p1862
sS'SCHEDULER_MAX_WINDOW'
p1863
S'0'
p1864
sS'GET_TAIL'
p1865
S'GET_TAIL_OFF'
p1866
sS'VIDEO_TRACE_FILE'
p1867
g162
sS'FIXED_PROP_DELAY'
p1868
S'FIXED_PROP_DELAY_OFF'
p1869
sS'NUM_WDM_ONU'
p1870
g6
(g7
S'QString'
p1871
(V0
p1872
tp1873
tp1874
Rp1875
sS'TRAFFIC_TYPE'
p1876
S'TRAFFIC_POISSON'
p1877
sS'GRANT_TRACE'
p1878
S'GRANT_TRACE_OFF'
p1879
sS'STARVE_THRESH'
p1880
g6
(g7
S'QString'
p1881
(V64
p1882
tp1883
tp1884
Rp1885
sS'VIDEO_RANDOM_START'
p1886
S'VIDEO_RANDOM_START_OFF'
p1887
sS'AVAIL_COST_WEIGHT'
p1888
g6
(g7
S'QString'
p1889
(V1.0
p1890
tp1891
tp1892
Rp1893
sS'TIME_SHIFT'
p1894
S'0.0'
p1895
sS'WDM_TYPE'
p1896
S'WDM_FIXED'
p1897
sS'NUM_HEAVY_ONU'
p1898
g6
(g7
S'QString'
p1899
(V0
p1900
tp1901
tp1902
Rp1903
sS'NUM_SS_STREAMS'
p1904
g6
(g7
S'QString'
p1905
(V32
p1906
tp1907
tp1908
Rp1909
sS'NUM_ONU'
p1910
g6
(g7
S'QString'
p1911
(V32
p1912
tp1913
tp1914
Rp1915
sS'VIDEO_TRAFFIC'
p1916
S'VIDEO_TRAFFIC_OFF'
p1917
sS'FIXED_PROP_DELAY_VALUE'
p1918
g6
(g7
S'QString'
p1919
(V50e-6
p1920
tp1921
tp1922
Rp1923
sS'SIM_TRACE'
p1924
S'SIM_TRACE_OFF'
p1925
sS'SS_HURST_PARAM'
p1926
g6
(g7
S'QString'
p1927
(V0.75
p1928
tp1929
tp1930
Rp1931
sS'FRAME_RATE'
p1932
S'30.0'
p1933
sS'simID'
p1934
g6
(g7
S'QString'
p1935
(Vtest_0227
p1936
tp1937
tp1938
Rp1939
sssS'test_0224'
p1940
(dp1941
S'params'
p1942
(dp1943
S'SV_NUM_MA_VALUES'
p1944
g6
(g7
S'QString'
p1945
(V5
p1946
tp1947
tp1948
Rp1949
sS'NUM_PREFERRED_ONU'
p1950
g6
(g7
S'QString'
p1951
(V0
p1952
tp1953
tp1954
Rp1955
sS'PREDICTION_TYPE'
p1956
S'FFBI'
p1957
sS'SCHEDULER_SLOT_SIZE'
p1958
g6
(g7
S'QString'
p1959
(V64
p1960
tp1961
tp1962
Rp1963
sS'START_LAMBDA'
p1964
g6
(g7
S'QString'
p1965
(V1
p1966
tp1967
tp1968
Rp1969
sS'LOAD_INCR'
p1970
g6
(g7
S'QString'
p1971
(V0.1
p1972
tp1973
tp1974
Rp1975
sS'OLT_TYPE'
p1976
S'OLT_ONLINE_NASC'
p1977
sS'SIM_TIME'
p1978
g6
(g7
S'QString'
p1979
(V300
p1980
tp1981
tp1982
Rp1983
sS'SV_DROP_SENSITIVITY'
p1984
g6
(g7
S'QString'
p1985
(V1.0
p1986
tp1987
tp1988
Rp1989
sS'MAX_GRANT_SIZE'
p1990
g6
(g7
S'QString'
p1991
(V156876
p1992
tp1993
tp1994
Rp1995
sS'MAX_PROP_DELAY'
p1996
g6
(g7
S'QString'
p1997
(V50e-6
p1998
tp1999
tp2000
Rp2001
sS'SCALABLE_VIDEO_TRAFFIC'
p2002
S'SCALABLE_VIDEO_OFF'
p2003
sS'SV_MIN_BOUND'
p2004
g6
(g7
S'QString'
p2005
(V0.0005
p2006
tp2007
tp2008
Rp2009
sS'SV_MAX_BOUND'
p2010
g6
(g7
S'QString'
p2011
(V0.005
p2012
tp2013
tp2014
Rp2015
sS'FIXED_GRANT_SIZE'
p2016
g6
(g7
S'QString'
p2017
(V156876
p2018
tp2019
tp2020
Rp2021
sS'VIDEO_DBA_TYPE'
p2022
S'VIDEO_DBA_LIMITED_GATE'
p2023
sS'GUARD_TIME'
p2024
g6
(g7
S'QString'
p2025
(V1e-6
p2026
tp2027
tp2028
Rp2029
sS'TUNING_TIME'
p2030
g6
(g7
S'QString'
p2031
(V5e-3
p2032
tp2033
tp2034
Rp2035
sS'SIM_TRACE'
p2036
S'SIM_TRACE_OFF'
p2037
sS'LINK_SPEED'
p2038
g6
(g7
S'QString'
p2039
(V1e9
p2040
tp2041
tp2042
Rp2043
sS'END_LAMBDA'
p2044
g6
(g7
S'QString'
p2045
(V1
p2046
tp2047
tp2048
Rp2049
sS'VIDEO_TRAFFIC'
p2050
S'VIDEO_TRAFFIC_OFF'
p2051
sS'SCHEDULER_NUM_SLOT'
p2052
g6
(g7
S'QString'
p2053
(V180
p2054
tp2055
tp2056
Rp2057
sS'SV_DROP_LAYER_THRESHOLD'
p2058
g6
(g7
S'QString'
p2059
(V4
p2060
tp2061
tp2062
Rp2063
sS'NUM_RUNS'
p2064
g6
(g7
S'QString'
p2065
(V1
p2066
tp2067
tp2068
Rp2069
sS'VIDEO_PREDICTION'
p2070
S'VIDEO_PREDICTION_OFF'
p2071
sS'HEAVY_LOAD'
p2072
g6
(g7
S'QString'
p2073
(V2
p2074
tp2075
tp2076
Rp2077
sS'NUM_LH_WDM_ONU'
p2078
g6
(g7
S'QString'
p2079
(V0
p2080
tp2081
tp2082
Rp2083
sS'NUM_UH_WDM_ONU'
p2084
g6
(g7
S'QString'
p2085
(V0
p2086
tp2087
tp2088
Rp2089
sS'DBA_TYPE'
p2090
S'DBA_LIMITED_GATE'
p2091
sS'SCALABLE_VIDEO_DROPPING_ALGORITHM'
p2092
S'SCALABLE_VIDEO_DROPPING_OFF'
p2093
sS'SCHEDULER_MAX_WINDOW'
p2094
S'0'
p2095
sS'GET_TAIL'
p2096
S'GET_TAIL_OFF'
p2097
sS'VIDEO_TRACE_FILE'
p2098
g162
sS'FIXED_PROP_DELAY'
p2099
S'FIXED_PROP_DELAY_OFF'
p2100
sS'NUM_WDM_ONU'
p2101
g6
(g7
S'QString'
p2102
(V0
p2103
tp2104
tp2105
Rp2106
sS'TRAFFIC_TYPE'
p2107
S'TRAFFIC_POISSON'
p2108
sS'GRANT_TRACE'
p2109
S'GRANT_TRACE_OFF'
p2110
sS'STARVE_THRESH'
p2111
g6
(g7
S'QString'
p2112
(V64
p2113
tp2114
tp2115
Rp2116
sS'VIDEO_RANDOM_START'
p2117
S'VIDEO_RANDOM_START_OFF'
p2118
sS'AVAIL_COST_WEIGHT'
p2119
g6
(g7
S'QString'
p2120
(V1.0
p2121
tp2122
tp2123
Rp2124
sS'TIME_SHIFT'
p2125
S'0.0'
p2126
sS'WDM_TYPE'
p2127
S'WDM_FIXED'
p2128
sS'NUM_HEAVY_ONU'
p2129
g6
(g7
S'QString'
p2130
(V0
p2131
tp2132
tp2133
Rp2134
sS'NUM_SS_STREAMS'
p2135
g6
(g7
S'QString'
p2136
(V32
p2137
tp2138
tp2139
Rp2140
sS'NUM_ONU'
p2141
g6
(g7
S'QString'
p2142
(V32
p2143
tp2144
tp2145
Rp2146
sS'START_LOAD'
p2147
g6
(g7
S'QString'
p2148
(V0.1
p2149
tp2150
tp2151
Rp2152
sS'FIXED_PROP_DELAY_VALUE'
p2153
g6
(g7
S'QString'
p2154
(V50e-6
p2155
tp2156
tp2157
Rp2158
sS'END_LOAD'
p2159
g6
(g7
S'QString'
p2160
(V0.9
p2161
tp2162
tp2163
Rp2164
sS'SS_HURST_PARAM'
p2165
g6
(g7
S'QString'
p2166
(V0.75
p2167
tp2168
tp2169
Rp2170
sS'FRAME_RATE'
p2171
S'30.0'
p2172
sS'simID'
p2173
g6
(g7
S'QString'
p2174
(Vtest_0224
p2175
tp2176
tp2177
Rp2178
ssS'host'
p2179
S'localhost'
p2180
sS'pid'
p2181
I30475
ssS'test_0225'
p2182
(dp2183
S'pid'
p2184
I30589
sS'host'
p2185
S'localhost'
p2186
sS'params'
p2187
(dp2188
S'SV_NUM_MA_VALUES'
p2189
g6
(g7
S'QString'
p2190
(V5
p2191
tp2192
tp2193
Rp2194
sS'NUM_PREFERRED_ONU'
p2195
g6
(g7
S'QString'
p2196
(V0
p2197
tp2198
tp2199
Rp2200
sS'PREDICTION_TYPE'
p2201
S'FFBI'
p2202
sS'SCHEDULER_SLOT_SIZE'
p2203
g6
(g7
S'QString'
p2204
(V64
p2205
tp2206
tp2207
Rp2208
sS'START_LAMBDA'
p2209
g6
(g7
S'QString'
p2210
(V1
p2211
tp2212
tp2213
Rp2214
sS'START_LOAD'
p2215
g6
(g7
S'QString'
p2216
(V0.1
p2217
tp2218
tp2219
Rp2220
sS'LOAD_INCR'
p2221
g6
(g7
S'QString'
p2222
(V0.1
p2223
tp2224
tp2225
Rp2226
sS'OLT_TYPE'
p2227
S'OLT_ONLINE_NASC'
p2228
sS'SIM_TIME'
p2229
g6
(g7
S'QString'
p2230
(V300
p2231
tp2232
tp2233
Rp2234
sS'SV_DROP_SENSITIVITY'
p2235
g6
(g7
S'QString'
p2236
(V1.0
p2237
tp2238
tp2239
Rp2240
sS'MAX_GRANT_SIZE'
p2241
g6
(g7
S'QString'
p2242
(V156876
p2243
tp2244
tp2245
Rp2246
sS'MAX_PROP_DELAY'
p2247
g6
(g7
S'QString'
p2248
(V50e-6
p2249
tp2250
tp2251
Rp2252
sS'SCALABLE_VIDEO_TRAFFIC'
p2253
S'SCALABLE_VIDEO_OFF'
p2254
sS'SV_MIN_BOUND'
p2255
g6
(g7
S'QString'
p2256
(V0.0005
p2257
tp2258
tp2259
Rp2260
sS'SV_MAX_BOUND'
p2261
g6
(g7
S'QString'
p2262
(V0.005
p2263
tp2264
tp2265
Rp2266
sS'FIXED_GRANT_SIZE'
p2267
g6
(g7
S'QString'
p2268
(V156876
p2269
tp2270
tp2271
Rp2272
sS'VIDEO_DBA_TYPE'
p2273
S'VIDEO_DBA_LIMITED_GATE'
p2274
sS'GUARD_TIME'
p2275
g6
(g7
S'QString'
p2276
(V1e-6
p2277
tp2278
tp2279
Rp2280
sS'TUNING_TIME'
p2281
g6
(g7
S'QString'
p2282
(V5e-3
p2283
tp2284
tp2285
Rp2286
sS'END_LOAD'
p2287
g6
(g7
S'QString'
p2288
(V0.9
p2289
tp2290
tp2291
Rp2292
sS'LINK_SPEED'
p2293
g6
(g7
S'QString'
p2294
(V1e9
p2295
tp2296
tp2297
Rp2298
sS'END_LAMBDA'
p2299
g6
(g7
S'QString'
p2300
(V1
p2301
tp2302
tp2303
Rp2304
sS'SCHEDULER_NUM_SLOT'
p2305
g6
(g7
S'QString'
p2306
(V180
p2307
tp2308
tp2309
Rp2310
sS'SV_DROP_LAYER_THRESHOLD'
p2311
g6
(g7
S'QString'
p2312
(V4
p2313
tp2314
tp2315
Rp2316
sS'NUM_RUNS'
p2317
g6
(g7
S'QString'
p2318
(V1
p2319
tp2320
tp2321
Rp2322
sS'VIDEO_PREDICTION'
p2323
S'VIDEO_PREDICTION_OFF'
p2324
sS'HEAVY_LOAD'
p2325
g6
(g7
S'QString'
p2326
(V2
p2327
tp2328
tp2329
Rp2330
sS'NUM_LH_WDM_ONU'
p2331
g6
(g7
S'QString'
p2332
(V0
p2333
tp2334
tp2335
Rp2336
sS'NUM_UH_WDM_ONU'
p2337
g6
(g7
S'QString'
p2338
(V0
p2339
tp2340
tp2341
Rp2342
sS'DBA_TYPE'
p2343
S'DBA_LIMITED_GATE'
p2344
sS'SCALABLE_VIDEO_DROPPING_ALGORITHM'
p2345
S'SCALABLE_VIDEO_DROPPING_OFF'
p2346
sS'SCHEDULER_MAX_WINDOW'
p2347
S'0'
p2348
sS'GET_TAIL'
p2349
S'GET_TAIL_OFF'
p2350
sS'VIDEO_TRACE_FILE'
p2351
g162
sS'FIXED_PROP_DELAY'
p2352
S'FIXED_PROP_DELAY_OFF'
p2353
sS'NUM_WDM_ONU'
p2354
g6
(g7
S'QString'
p2355
(V0
p2356
tp2357
tp2358
Rp2359
sS'TRAFFIC_TYPE'
p2360
S'TRAFFIC_POISSON'
p2361
sS'GRANT_TRACE'
p2362
S'GRANT_TRACE_OFF'
p2363
sS'STARVE_THRESH'
p2364
g6
(g7
S'QString'
p2365
(V64
p2366
tp2367
tp2368
Rp2369
sS'VIDEO_RANDOM_START'
p2370
S'VIDEO_RANDOM_START_OFF'
p2371
sS'AVAIL_COST_WEIGHT'
p2372
g6
(g7
S'QString'
p2373
(V1.0
p2374
tp2375
tp2376
Rp2377
sS'TIME_SHIFT'
p2378
S'0.0'
p2379
sS'WDM_TYPE'
p2380
S'WDM_FIXED'
p2381
sS'NUM_HEAVY_ONU'
p2382
g6
(g7
S'QString'
p2383
(V0
p2384
tp2385
tp2386
Rp2387
sS'NUM_SS_STREAMS'
p2388
g6
(g7
S'QString'
p2389
(V32
p2390
tp2391
tp2392
Rp2393
sS'NUM_ONU'
p2394
g6
(g7
S'QString'
p2395
(V32
p2396
tp2397
tp2398
Rp2399
sS'VIDEO_TRAFFIC'
p2400
S'VIDEO_TRAFFIC_OFF'
p2401
sS'FIXED_PROP_DELAY_VALUE'
p2402
g6
(g7
S'QString'
p2403
(V50e-6
p2404
tp2405
tp2406
Rp2407
sS'SIM_TRACE'
p2408
S'SIM_TRACE_OFF'
p2409
sS'SS_HURST_PARAM'
p2410
g6
(g7
S'QString'
p2411
(V0.75
p2412
tp2413
tp2414
Rp2415
sS'FRAME_RATE'
p2416
S'30.0'
p2417
sS'simID'
p2418
g6
(g7
S'QString'
p2419
(Vtest_0225
p2420
tp2421
tp2422
Rp2423
sssS'test_0231'
p2424
(dp2425
S'pid'
p2426
I31615
sS'host'
p2427
S'localhost'
p2428
sS'params'
p2429
(dp2430
S'SV_NUM_MA_VALUES'
p2431
g6
(g7
S'QString'
p2432
(V5
p2433
tp2434
tp2435
Rp2436
sS'NUM_PREFERRED_ONU'
p2437
g6
(g7
S'QString'
p2438
(V0
p2439
tp2440
tp2441
Rp2442
sS'PREDICTION_TYPE'
p2443
S'FFBI'
p2444
sS'SCHEDULER_SLOT_SIZE'
p2445
g6
(g7
S'QString'
p2446
(V64
p2447
tp2448
tp2449
Rp2450
sS'START_LAMBDA'
p2451
g6
(g7
S'QString'
p2452
(V1
p2453
tp2454
tp2455
Rp2456
sS'START_LOAD'
p2457
g6
(g7
S'QString'
p2458
(V0.1
p2459
tp2460
tp2461
Rp2462
sS'LOAD_INCR'
p2463
g6
(g7
S'QString'
p2464
(V0.1
p2465
tp2466
tp2467
Rp2468
sS'OLT_TYPE'
p2469
S'OLT_ONLINE_NASC'
p2470
sS'SIM_TIME'
p2471
g6
(g7
S'QString'
p2472
(V300
p2473
tp2474
tp2475
Rp2476
sS'SV_DROP_SENSITIVITY'
p2477
g6
(g7
S'QString'
p2478
(V1.0
p2479
tp2480
tp2481
Rp2482
sS'MAX_GRANT_SIZE'
p2483
g6
(g7
S'QString'
p2484
(V156876
p2485
tp2486
tp2487
Rp2488
sS'MAX_PROP_DELAY'
p2489
g6
(g7
S'QString'
p2490
(V50e-6
p2491
tp2492
tp2493
Rp2494
sS'SCALABLE_VIDEO_TRAFFIC'
p2495
S'SCALABLE_VIDEO_OFF'
p2496
sS'SV_MIN_BOUND'
p2497
g6
(g7
S'QString'
p2498
(V0.0005
p2499
tp2500
tp2501
Rp2502
sS'SV_MAX_BOUND'
p2503
g6
(g7
S'QString'
p2504
(V0.005
p2505
tp2506
tp2507
Rp2508
sS'FIXED_GRANT_SIZE'
p2509
g6
(g7
S'QString'
p2510
(V156876
p2511
tp2512
tp2513
Rp2514
sS'VIDEO_DBA_TYPE'
p2515
S'VIDEO_DBA_LIMITED_GATE'
p2516
sS'GUARD_TIME'
p2517
g6
(g7
S'QString'
p2518
(V1e-6
p2519
tp2520
tp2521
Rp2522
sS'TUNING_TIME'
p2523
g6
(g7
S'QString'
p2524
(V5e-3
p2525
tp2526
tp2527
Rp2528
sS'END_LOAD'
p2529
g6
(g7
S'QString'
p2530
(V0.9
p2531
tp2532
tp2533
Rp2534
sS'LINK_SPEED'
p2535
g6
(g7
S'QString'
p2536
(V1e9
p2537
tp2538
tp2539
Rp2540
sS'END_LAMBDA'
p2541
g6
(g7
S'QString'
p2542
(V1
p2543
tp2544
tp2545
Rp2546
sS'SCHEDULER_NUM_SLOT'
p2547
g6
(g7
S'QString'
p2548
(V180
p2549
tp2550
tp2551
Rp2552
sS'SV_DROP_LAYER_THRESHOLD'
p2553
g6
(g7
S'QString'
p2554
(V4
p2555
tp2556
tp2557
Rp2558
sS'NUM_RUNS'
p2559
g6
(g7
S'QString'
p2560
(V1
p2561
tp2562
tp2563
Rp2564
sS'VIDEO_PREDICTION'
p2565
S'VIDEO_PREDICTION_OFF'
p2566
sS'HEAVY_LOAD'
p2567
g6
(g7
S'QString'
p2568
(V2
p2569
tp2570
tp2571
Rp2572
sS'NUM_LH_WDM_ONU'
p2573
g6
(g7
S'QString'
p2574
(V0
p2575
tp2576
tp2577
Rp2578
sS'NUM_UH_WDM_ONU'
p2579
g6
(g7
S'QString'
p2580
(V0
p2581
tp2582
tp2583
Rp2584
sS'DBA_TYPE'
p2585
S'DBA_LIMITED_GATE'
p2586
sS'SCALABLE_VIDEO_DROPPING_ALGORITHM'
p2587
S'SCALABLE_VIDEO_DROPPING_OFF'
p2588
sS'SCHEDULER_MAX_WINDOW'
p2589
S'0'
p2590
sS'GET_TAIL'
p2591
S'GET_TAIL_OFF'
p2592
sS'VIDEO_TRACE_FILE'
p2593
g162
sS'FIXED_PROP_DELAY'
p2594
S'FIXED_PROP_DELAY_OFF'
p2595
sS'NUM_WDM_ONU'
p2596
g6
(g7
S'QString'
p2597
(V0
p2598
tp2599
tp2600
Rp2601
sS'TRAFFIC_TYPE'
p2602
S'TRAFFIC_POISSON'
p2603
sS'GRANT_TRACE'
p2604
S'GRANT_TRACE_OFF'
p2605
sS'STARVE_THRESH'
p2606
g6
(g7
S'QString'
p2607
(V64
p2608
tp2609
tp2610
Rp2611
sS'VIDEO_RANDOM_START'
p2612
S'VIDEO_RANDOM_START_OFF'
p2613
sS'AVAIL_COST_WEIGHT'
p2614
g6
(g7
S'QString'
p2615
(V1.0
p2616
tp2617
tp2618
Rp2619
sS'TIME_SHIFT'
p2620
S'0.0'
p2621
sS'WDM_TYPE'
p2622
S'WDM_FIXED'
p2623
sS'NUM_HEAVY_ONU'
p2624
g6
(g7
S'QString'
p2625
(V0
p2626
tp2627
tp2628
Rp2629
sS'NUM_SS_STREAMS'
p2630
g6
(g7
S'QString'
p2631
(V32
p2632
tp2633
tp2634
Rp2635
sS'NUM_ONU'
p2636
g6
(g7
S'QString'
p2637
(V32
p2638
tp2639
tp2640
Rp2641
sS'VIDEO_TRAFFIC'
p2642
S'VIDEO_TRAFFIC_OFF'
p2643
sS'FIXED_PROP_DELAY_VALUE'
p2644
g6
(g7
S'QString'
p2645
(V50e-6
p2646
tp2647
tp2648
Rp2649
sS'SIM_TRACE'
p2650
S'SIM_TRACE_OFF'
p2651
sS'SS_HURST_PARAM'
p2652
g6
(g7
S'QString'
p2653
(V0.75
p2654
tp2655
tp2656
Rp2657
sS'FRAME_RATE'
p2658
S'30.0'
p2659
sS'simID'
p2660
g6
(g7
S'QString'
p2661
(Vtest_0231
p2662
tp2663
tp2664
Rp2665
sssS'test_0259'
p2666
(dp2667
S'pid'
p2668
I450
sS'host'
p2669
S'localhost'
p2670
sS'params'
p2671
(dp2672
S'SV_NUM_MA_VALUES'
p2673
g6
(g7
S'QString'
p2674
(V5
p2675
tp2676
tp2677
Rp2678
sS'NUM_PREFERRED_ONU'
p2679
g6
(g7
S'QString'
p2680
(V0
p2681
tp2682
tp2683
Rp2684
sS'PREDICTION_TYPE'
p2685
S'FFBI'
p2686
sS'SCHEDULER_SLOT_SIZE'
p2687
g6
(g7
S'QString'
p2688
(V64
p2689
tp2690
tp2691
Rp2692
sS'START_LAMBDA'
p2693
g6
(g7
S'QString'
p2694
(V1
p2695
tp2696
tp2697
Rp2698
sS'START_LOAD'
p2699
g6
(g7
S'QString'
p2700
(V0.1
p2701
tp2702
tp2703
Rp2704
sS'LOAD_INCR'
p2705
g6
(g7
S'QString'
p2706
(V0.1
p2707
tp2708
tp2709
Rp2710
sS'OLT_TYPE'
p2711
S'OLT_APS'
p2712
sS'SIM_TIME'
p2713
g6
(g7
S'QString'
p2714
(V300
p2715
tp2716
tp2717
Rp2718
sS'SV_DROP_SENSITIVITY'
p2719
g6
(g7
S'QString'
p2720
(V1.0
p2721
tp2722
tp2723
Rp2724
sS'MAX_GRANT_SIZE'
p2725
g6
(g7
S'QString'
p2726
(V156876
p2727
tp2728
tp2729
Rp2730
sS'MAX_PROP_DELAY'
p2731
g6
(g7
S'QString'
p2732
(V50e-6
p2733
tp2734
tp2735
Rp2736
sS'SCALABLE_VIDEO_TRAFFIC'
p2737
S'SCALABLE_VIDEO_OFF'
p2738
sS'SV_MIN_BOUND'
p2739
g6
(g7
S'QString'
p2740
(V0.0005
p2741
tp2742
tp2743
Rp2744
sS'SV_MAX_BOUND'
p2745
g6
(g7
S'QString'
p2746
(V0.005
p2747
tp2748
tp2749
Rp2750
sS'FIXED_GRANT_SIZE'
p2751
g6
(g7
S'QString'
p2752
(V156876
p2753
tp2754
tp2755
Rp2756
sS'VIDEO_DBA_TYPE'
p2757
S'VIDEO_DBA_LIMITED_GATE'
p2758
sS'GUARD_TIME'
p2759
g6
(g7
S'QString'
p2760
(V1e-6
p2761
tp2762
tp2763
Rp2764
sS'TUNING_TIME'
p2765
g6
(g7
S'QString'
p2766
(V5e-3
p2767
tp2768
tp2769
Rp2770
sS'END_LOAD'
p2771
g6
(g7
S'QString'
p2772
(V0.9
p2773
tp2774
tp2775
Rp2776
sS'LINK_SPEED'
p2777
g6
(g7
S'QString'
p2778
(V1e9
p2779
tp2780
tp2781
Rp2782
sS'END_LAMBDA'
p2783
g6
(g7
S'QString'
p2784
(V1
p2785
tp2786
tp2787
Rp2788
sS'SCHEDULER_NUM_SLOT'
p2789
g6
(g7
S'QString'
p2790
(V180
p2791
tp2792
tp2793
Rp2794
sS'SV_DROP_LAYER_THRESHOLD'
p2795
g6
(g7
S'QString'
p2796
(V4
p2797
tp2798
tp2799
Rp2800
sS'NUM_RUNS'
p2801
g6
(g7
S'QString'
p2802
(V1
p2803
tp2804
tp2805
Rp2806
sS'VIDEO_PREDICTION'
p2807
S'VIDEO_PREDICTION_OFF'
p2808
sS'HEAVY_LOAD'
p2809
g6
(g7
S'QString'
p2810
(V2
p2811
tp2812
tp2813
Rp2814
sS'NUM_LH_WDM_ONU'
p2815
g6
(g7
S'QString'
p2816
(V0
p2817
tp2818
tp2819
Rp2820
sS'NUM_UH_WDM_ONU'
p2821
g6
(g7
S'QString'
p2822
(V0
p2823
tp2824
tp2825
Rp2826
sS'DBA_TYPE'
p2827
S'DBA_LIMITED_GATE'
p2828
sS'SCALABLE_VIDEO_DROPPING_ALGORITHM'
p2829
S'SCALABLE_VIDEO_DROPPING_OFF'
p2830
sS'SCHEDULER_MAX_WINDOW'
p2831
S'0'
p2832
sS'GET_TAIL'
p2833
S'GET_TAIL_OFF'
p2834
sS'VIDEO_TRACE_FILE'
p2835
g162
sS'FIXED_PROP_DELAY'
p2836
S'FIXED_PROP_DELAY_OFF'
p2837
sS'NUM_WDM_ONU'
p2838
g6
(g7
S'QString'
p2839
(V0
p2840
tp2841
tp2842
Rp2843
sS'TRAFFIC_TYPE'
p2844
S'TRAFFIC_POISSON'
p2845
sS'GRANT_TRACE'
p2846
S'GRANT_TRACE_OFF'
p2847
sS'STARVE_THRESH'
p2848
g6
(g7
S'QString'
p2849
(V64
p2850
tp2851
tp2852
Rp2853
sS'VIDEO_RANDOM_START'
p2854
S'VIDEO_RANDOM_START_OFF'
p2855
sS'AVAIL_COST_WEIGHT'
p2856
g6
(g7
S'QString'
p2857
(V1.0
p2858
tp2859
tp2860
Rp2861
sS'TIME_SHIFT'
p2862
S'0.0'
p2863
sS'WDM_TYPE'
p2864
S'WDM_FIXED'
p2865
sS'NUM_HEAVY_ONU'
p2866
g6
(g7
S'QString'
p2867
(V0
p2868
tp2869
tp2870
Rp2871
sS'NUM_SS_STREAMS'
p2872
g6
(g7
S'QString'
p2873
(V32
p2874
tp2875
tp2876
Rp2877
sS'NUM_ONU'
p2878
g6
(g7
S'QString'
p2879
(V32
p2880
tp2881
tp2882
Rp2883
sS'VIDEO_TRAFFIC'
p2884
S'VIDEO_TRAFFIC_OFF'
p2885
sS'FIXED_PROP_DELAY_VALUE'
p2886
g6
(g7
S'QString'
p2887
(V50e-6
p2888
tp2889
tp2890
Rp2891
sS'SIM_TRACE'
p2892
S'SIM_TRACE_OFF'
p2893
sS'SS_HURST_PARAM'
p2894
g6
(g7
S'QString'
p2895
(V0.75
p2896
tp2897
tp2898
Rp2899
sS'FRAME_RATE'
p2900
S'30.0'
p2901
sS'simID'
p2902
g6
(g7
S'QString'
p2903
(Vtest_0259
p2904
tp2905
tp2906
Rp2907
sssS'test_0258'
p2908
(dp2909
g2668
I398
sg2669
g2670
sg2671
(dp2910
g2673
g6
(g7
S'QString'
p2911
(V5
p2912
tp2913
tp2914
Rp2915
sg2679
g6
(g7
S'QString'
p2916
(V0
p2917
tp2918
tp2919
Rp2920
sg2685
g2686
sg2687
g6
(g7
S'QString'
p2921
(V64
p2922
tp2923
tp2924
Rp2925
sg2693
g6
(g7
S'QString'
p2926
(V1
p2927
tp2928
tp2929
Rp2930
sg2705
g6
(g7
S'QString'
p2931
(V0.1
p2932
tp2933
tp2934
Rp2935
sg2711
S'OLT_ONLINE_JIT_TEST'
p2936
sg2713
g6
(g7
S'QString'
p2937
(V300
p2938
tp2939
tp2940
Rp2941
sg2827
g2828
sg2737
g2738
sg2731
g6
(g7
S'QString'
p2942
(V50e-6
p2943
tp2944
tp2945
Rp2946
sg2725
g6
(g7
S'QString'
p2947
(V156876
p2948
tp2949
tp2950
Rp2951
sg2739
g6
(g7
S'QString'
p2952
(V0.0005
p2953
tp2954
tp2955
Rp2956
sg2745
g6
(g7
S'QString'
p2957
(V0.005
p2958
tp2959
tp2960
Rp2961
sg2751
g6
(g7
S'QString'
p2962
(V156876
p2963
tp2964
tp2965
Rp2966
sg2757
g2758
sg2759
g6
(g7
S'QString'
p2967
(V1e-6
p2968
tp2969
tp2970
Rp2971
sg2765
g6
(g7
S'QString'
p2972
(V5e-3
p2973
tp2974
tp2975
Rp2976
sg2892
g2893
sg2777
g6
(g7
S'QString'
p2977
(V1e9
p2978
tp2979
tp2980
Rp2981
sg2783
g6
(g7
S'QString'
p2982
(V1
p2983
tp2984
tp2985
Rp2986
sg2884
g2885
sg2789
g6
(g7
S'QString'
p2987
(V180
p2988
tp2989
tp2990
Rp2991
sg2795
g6
(g7
S'QString'
p2992
(V4
p2993
tp2994
tp2995
Rp2996
sg2801
g6
(g7
S'QString'
p2997
(V1
p2998
tp2999
tp3000
Rp3001
sg2807
g2808
sg2809
g6
(g7
S'QString'
p3002
(V2
p3003
tp3004
tp3005
Rp3006
sg2815
g6
(g7
S'QString'
p3007
(V0
p3008
tp3009
tp3010
Rp3011
sg2821
g6
(g7
S'QString'
p3012
(V0
p3013
tp3014
tp3015
Rp3016
sg2829
g2830
sg2831
g2832
sg2833
g2834
sg2835
g162
sg2836
g2837
sg2838
g6
(g7
S'QString'
p3017
(V0
p3018
tp3019
tp3020
Rp3021
sg2844
g2845
sg2846
g2847
sg2848
g6
(g7
S'QString'
p3022
(V64
p3023
tp3024
tp3025
Rp3026
sg2854
g2855
sg2856
g6
(g7
S'QString'
p3027
(V1.0
p3028
tp3029
tp3030
Rp3031
sg2862
g2863
sg2864
g2865
sg2719
g6
(g7
S'QString'
p3032
(V1.0
p3033
tp3034
tp3035
Rp3036
sg2866
g6
(g7
S'QString'
p3037
(V0
p3038
tp3039
tp3040
Rp3041
sg2872
g6
(g7
S'QString'
p3042
(V32
p3043
tp3044
tp3045
Rp3046
sg2878
g6
(g7
S'QString'
p3047
(V32
p3048
tp3049
tp3050
Rp3051
sg2699
g6
(g7
S'QString'
p3052
(V0.1
p3053
tp3054
tp3055
Rp3056
sg2886
g6
(g7
S'QString'
p3057
(V50e-6
p3058
tp3059
tp3060
Rp3061
sg2771
g6
(g7
S'QString'
p3062
(V0.9
p3063
tp3064
tp3065
Rp3066
sg2894
g6
(g7
S'QString'
p3067
(V0.75
p3068
tp3069
tp3070
Rp3071
sg2900
g2901
sg2902
g6
(g7
S'QString'
p3072
(Vtest_0258
p3073
tp3074
tp3075
Rp3076
sssS'test_0230'
p3077
(dp3078
S'params'
p3079
(dp3080
S'SV_NUM_MA_VALUES'
p3081
g6
(g7
S'QString'
p3082
(V5
p3083
tp3084
tp3085
Rp3086
sS'NUM_PREFERRED_ONU'
p3087
g6
(g7
S'QString'
p3088
(V0
p3089
tp3090
tp3091
Rp3092
sS'PREDICTION_TYPE'
p3093
S'FFBI'
p3094
sS'SCHEDULER_SLOT_SIZE'
p3095
g6
(g7
S'QString'
p3096
(V64
p3097
tp3098
tp3099
Rp3100
sS'START_LAMBDA'
p3101
g6
(g7
S'QString'
p3102
(V1
p3103
tp3104
tp3105
Rp3106
sS'LOAD_INCR'
p3107
g6
(g7
S'QString'
p3108
(V0.1
p3109
tp3110
tp3111
Rp3112
sS'OLT_TYPE'
p3113
S'OLT_ONLINE_NASC'
p3114
sS'SIM_TIME'
p3115
g6
(g7
S'QString'
p3116
(V300
p3117
tp3118
tp3119
Rp3120
sS'SV_DROP_SENSITIVITY'
p3121
g6
(g7
S'QString'
p3122
(V1.0
p3123
tp3124
tp3125
Rp3126
sS'MAX_GRANT_SIZE'
p3127
g6
(g7
S'QString'
p3128
(V156876
p3129
tp3130
tp3131
Rp3132
sS'MAX_PROP_DELAY'
p3133
g6
(g7
S'QString'
p3134
(V50e-6
p3135
tp3136
tp3137
Rp3138
sS'SCALABLE_VIDEO_TRAFFIC'
p3139
S'SCALABLE_VIDEO_OFF'
p3140
sS'SV_MIN_BOUND'
p3141
g6
(g7
S'QString'
p3142
(V0.0005
p3143
tp3144
tp3145
Rp3146
sS'SV_MAX_BOUND'
p3147
g6
(g7
S'QString'
p3148
(V0.005
p3149
tp3150
tp3151
Rp3152
sS'FIXED_GRANT_SIZE'
p3153
g6
(g7
S'QString'
p3154
(V156876
p3155
tp3156
tp3157
Rp3158
sS'VIDEO_DBA_TYPE'
p3159
S'VIDEO_DBA_LIMITED_GATE'
p3160
sS'GUARD_TIME'
p3161
g6
(g7
S'QString'
p3162
(V1e-6
p3163
tp3164
tp3165
Rp3166
sS'TUNING_TIME'
p3167
g6
(g7
S'QString'
p3168
(V5e-3
p3169
tp3170
tp3171
Rp3172
sS'SIM_TRACE'
p3173
S'SIM_TRACE_OFF'
p3174
sS'LINK_SPEED'
p3175
g6
(g7
S'QString'
p3176
(V1e9
p3177
tp3178
tp3179
Rp3180
sS'END_LAMBDA'
p3181
g6
(g7
S'QString'
p3182
(V1
p3183
tp3184
tp3185
Rp3186
sS'VIDEO_TRAFFIC'
p3187
S'VIDEO_TRAFFIC_OFF'
p3188
sS'SCHEDULER_NUM_SLOT'
p3189
g6
(g7
S'QString'
p3190
(V180
p3191
tp3192
tp3193
Rp3194
sS'SV_DROP_LAYER_THRESHOLD'
p3195
g6
(g7
S'QString'
p3196
(V4
p3197
tp3198
tp3199
Rp3200
sS'NUM_RUNS'
p3201
g6
(g7
S'QString'
p3202
(V1
p3203
tp3204
tp3205
Rp3206
sS'VIDEO_PREDICTION'
p3207
S'VIDEO_PREDICTION_OFF'
p3208
sS'HEAVY_LOAD'
p3209
g6
(g7
S'QString'
p3210
(V2
p3211
tp3212
tp3213
Rp3214
sS'NUM_LH_WDM_ONU'
p3215
g6
(g7
S'QString'
p3216
(V0
p3217
tp3218
tp3219
Rp3220
sS'NUM_UH_WDM_ONU'
p3221
g6
(g7
S'QString'
p3222
(V0
p3223
tp3224
tp3225
Rp3226
sS'DBA_TYPE'
p3227
S'DBA_LIMITED_GATE'
p3228
sS'SCALABLE_VIDEO_DROPPING_ALGORITHM'
p3229
S'SCALABLE_VIDEO_DROPPING_OFF'
p3230
sS'SCHEDULER_MAX_WINDOW'
p3231
S'0'
p3232
sS'GET_TAIL'
p3233
S'GET_TAIL_OFF'
p3234
sS'VIDEO_TRACE_FILE'
p3235
g162
sS'FIXED_PROP_DELAY'
p3236
S'FIXED_PROP_DELAY_OFF'
p3237
sS'NUM_WDM_ONU'
p3238
g6
(g7
S'QString'
p3239
(V0
p3240
tp3241
tp3242
Rp3243
sS'TRAFFIC_TYPE'
p3244
S'TRAFFIC_POISSON'
p3245
sS'GRANT_TRACE'
p3246
S'GRANT_TRACE_OFF'
p3247
sS'STARVE_THRESH'
p3248
g6
(g7
S'QString'
p3249
(V64
p3250
tp3251
tp3252
Rp3253
sS'VIDEO_RANDOM_START'
p3254
S'VIDEO_RANDOM_START_OFF'
p3255
sS'AVAIL_COST_WEIGHT'
p3256
g6
(g7
S'QString'
p3257
(V1.0
p3258
tp3259
tp3260
Rp3261
sS'TIME_SHIFT'
p3262
S'0.0'
p3263
sS'WDM_TYPE'
p3264
S'WDM_FIXED'
p3265
sS'NUM_HEAVY_ONU'
p3266
g6
(g7
S'QString'
p3267
(V0
p3268
tp3269
tp3270
Rp3271
sS'NUM_SS_STREAMS'
p3272
g6
(g7
S'QString'
p3273
(V32
p3274
tp3275
tp3276
Rp3277
sS'NUM_ONU'
p3278
g6
(g7
S'QString'
p3279
(V32
p3280
tp3281
tp3282
Rp3283
sS'START_LOAD'
p3284
g6
(g7
S'QString'
p3285
(V0.1
p3286
tp3287
tp3288
Rp3289
sS'FIXED_PROP_DELAY_VALUE'
p3290
g6
(g7
S'QString'
p3291
(V50e-6
p3292
tp3293
tp3294
Rp3295
sS'END_LOAD'
p3296
g6
(g7
S'QString'
p3297
(V0.9
p3298
tp3299
tp3300
Rp3301
sS'SS_HURST_PARAM'
p3302
g6
(g7
S'QString'
p3303
(V0.75
p3304
tp3305
tp3306
Rp3307
sS'FRAME_RATE'
p3308
S'30.0'
p3309
sS'simID'
p3310
g6
(g7
S'QString'
p3311
(Vtest_0230
p3312
tp3313
tp3314
Rp3315
ssS'host'
p3316
S'localhost'
p3317
sS'pid'
p3318
I31349
ssS'test_0253'
p3319
(dp3320
S'params'
p3321
(dp3322
S'SV_NUM_MA_VALUES'
p3323
g6
(g7
S'QString'
p3324
(V5
p3325
tp3326
tp3327
Rp3328
sS'NUM_PREFERRED_ONU'
p3329
g6
(g7
S'QString'
p3330
(V0
p3331
tp3332
tp3333
Rp3334
sS'PREDICTION_TYPE'
p3335
S'FFBI'
p3336
sS'SCHEDULER_SLOT_SIZE'
p3337
g6
(g7
S'QString'
p3338
(V64
p3339
tp3340
tp3341
Rp3342
sS'START_LAMBDA'
p3343
g6
(g7
S'QString'
p3344
(V1
p3345
tp3346
tp3347
Rp3348
sS'START_LOAD'
p3349
g6
(g7
S'QString'
p3350
(V0.1
p3351
tp3352
tp3353
Rp3354
sS'LOAD_INCR'
p3355
g6
(g7
S'QString'
p3356
(V0.1
p3357
tp3358
tp3359
Rp3360
sS'OLT_TYPE'
p3361
S'OLT_IPACT'
p3362
sS'SIM_TIME'
p3363
g6
(g7
S'QString'
p3364
(V300
p3365
tp3366
tp3367
Rp3368
sS'DBA_TYPE'
p3369
S'DBA_LIMITED_GATE'
p3370
sS'SCALABLE_VIDEO_TRAFFIC'
p3371
S'SCALABLE_VIDEO_OFF'
p3372
sS'MAX_PROP_DELAY'
p3373
g6
(g7
S'QString'
p3374
(V50e-6
p3375
tp3376
tp3377
Rp3378
sS'MAX_GRANT_SIZE'
p3379
g6
(g7
S'QString'
p3380
(V156876
p3381
tp3382
tp3383
Rp3384
sS'SV_MIN_BOUND'
p3385
g6
(g7
S'QString'
p3386
(V0.0005
p3387
tp3388
tp3389
Rp3390
sS'SV_MAX_BOUND'
p3391
g6
(g7
S'QString'
p3392
(V0.005
p3393
tp3394
tp3395
Rp3396
sS'FIXED_GRANT_SIZE'
p3397
g6
(g7
S'QString'
p3398
(V156876
p3399
tp3400
tp3401
Rp3402
sS'VIDEO_DBA_TYPE'
p3403
S'VIDEO_DBA_LIMITED_GATE'
p3404
sS'GUARD_TIME'
p3405
g6
(g7
S'QString'
p3406
(V1e-6
p3407
tp3408
tp3409
Rp3410
sS'TUNING_TIME'
p3411
g6
(g7
S'QString'
p3412
(V5e-3
p3413
tp3414
tp3415
Rp3416
sS'END_LOAD'
p3417
g6
(g7
S'QString'
p3418
(V0.9
p3419
tp3420
tp3421
Rp3422
sS'LINK_SPEED'
p3423
g6
(g7
S'QString'
p3424
(V1e9
p3425
tp3426
tp3427
Rp3428
sS'END_LAMBDA'
p3429
g6
(g7
S'QString'
p3430
(V1
p3431
tp3432
tp3433
Rp3434
sS'SCHEDULER_NUM_SLOT'
p3435
g6
(g7
S'QString'
p3436
(V180
p3437
tp3438
tp3439
Rp3440
sS'SV_DROP_LAYER_THRESHOLD'
p3441
g6
(g7
S'QString'
p3442
(V4
p3443
tp3444
tp3445
Rp3446
sS'NUM_RUNS'
p3447
g6
(g7
S'QString'
p3448
(V1
p3449
tp3450
tp3451
Rp3452
sS'VIDEO_PREDICTION'
p3453
S'VIDEO_PREDICTION_OFF'
p3454
sS'HEAVY_LOAD'
p3455
g6
(g7
S'QString'
p3456
(V2
p3457
tp3458
tp3459
Rp3460
sS'NUM_LH_WDM_ONU'
p3461
g6
(g7
S'QString'
p3462
(V0
p3463
tp3464
tp3465
Rp3466
sS'NUM_UH_WDM_ONU'
p3467
g6
(g7
S'QString'
p3468
(V0
p3469
tp3470
tp3471
Rp3472
sS'SCALABLE_VIDEO_DROPPING_ALGORITHM'
p3473
S'SCALABLE_VIDEO_DROPPING_OFF'
p3474
sS'SCHEDULER_MAX_WINDOW'
p3475
S'0'
p3476
sS'GET_TAIL'
p3477
S'GET_TAIL_OFF'
p3478
sS'VIDEO_TRACE_FILE'
p3479
g162
sS'FIXED_PROP_DELAY'
p3480
S'FIXED_PROP_DELAY_OFF'
p3481
sS'NUM_WDM_ONU'
p3482
g6
(g7
S'QString'
p3483
(V0
p3484
tp3485
tp3486
Rp3487
sS'TRAFFIC_TYPE'
p3488
S'TRAFFIC_POISSON'
p3489
sS'GRANT_TRACE'
p3490
S'GRANT_TRACE_OFF'
p3491
sS'STARVE_THRESH'
p3492
g6
(g7
S'QString'
p3493
(V64
p3494
tp3495
tp3496
Rp3497
sS'VIDEO_RANDOM_START'
p3498
S'VIDEO_RANDOM_START_OFF'
p3499
sS'AVAIL_COST_WEIGHT'
p3500
g6
(g7
S'QString'
p3501
(V1.0
p3502
tp3503
tp3504
Rp3505
sS'TIME_SHIFT'
p3506
S'0.0'
p3507
sS'WDM_TYPE'
p3508
S'WDM_FIXED'
p3509
sS'SV_DROP_SENSITIVITY'
p3510
g6
(g7
S'QString'
p3511
(V1.0
p3512
tp3513
tp3514
Rp3515
sS'NUM_HEAVY_ONU'
p3516
g6
(g7
S'QString'
p3517
(V0
p3518
tp3519
tp3520
Rp3521
sS'NUM_SS_STREAMS'
p3522
g6
(g7
S'QString'
p3523
(V32
p3524
tp3525
tp3526
Rp3527
sS'NUM_ONU'
p3528
g6
(g7
S'QString'
p3529
(V32
p3530
tp3531
tp3532
Rp3533
sS'VIDEO_TRAFFIC'
p3534
S'VIDEO_TRAFFIC_OFF'
p3535
sS'FIXED_PROP_DELAY_VALUE'
p3536
g6
(g7
S'QString'
p3537
(V50e-6
p3538
tp3539
tp3540
Rp3541
sS'SIM_TRACE'
p3542
S'SIM_TRACE_OFF'
p3543
sS'SS_HURST_PARAM'
p3544
g6
(g7
S'QString'
p3545
(V0.75
p3546
tp3547
tp3548
Rp3549
sS'FRAME_RATE'
p3550
S'30.0'
p3551
sS'simID'
p3552
g6
(g7
S'QString'
p3553
(Vtest_0253
p3554
tp3555
tp3556
Rp3557
ssS'host'
p3558
S'localhost'
p3559
sS'pid'
p3560
I32579
ssS'test_0252'
p3561
(dp3562
g3321
(dp3563
g3323
g6
(g7
S'QString'
p3564
(V5
p3565
tp3566
tp3567
Rp3568
sg3329
g6
(g7
S'QString'
p3569
(V0
p3570
tp3571
tp3572
Rp3573
sg3335
g3336
sg3337
g6
(g7
S'QString'
p3574
(V64
p3575
tp3576
tp3577
Rp3578
sg3343
g6
(g7
S'QString'
p3579
(V1
p3580
tp3581
tp3582
Rp3583
sg3355
g6
(g7
S'QString'
p3584
(V0.1
p3585
tp3586
tp3587
Rp3588
sg3361
S'OLT_ONLINE_JIT_TEST'
p3589
sg3363
g6
(g7
S'QString'
p3590
(V300
p3591
tp3592
tp3593
Rp3594
sg3510
g6
(g7
S'QString'
p3595
(V1.0
p3596
tp3597
tp3598
Rp3599
sg3379
g6
(g7
S'QString'
p3600
(V156876
p3601
tp3602
tp3603
Rp3604
sg3373
g6
(g7
S'QString'
p3605
(V50e-6
p3606
tp3607
tp3608
Rp3609
sg3371
g3372
sg3385
g6
(g7
S'QString'
p3610
(V0.0005
p3611
tp3612
tp3613
Rp3614
sg3391
g6
(g7
S'QString'
p3615
(V0.005
p3616
tp3617
tp3618
Rp3619
sg3397
g6
(g7
S'QString'
p3620
(V156876
p3621
tp3622
tp3623
Rp3624
sg3403
g3404
sg3405
g6
(g7
S'QString'
p3625
(V1e-6
p3626
tp3627
tp3628
Rp3629
sg3411
g6
(g7
S'QString'
p3630
(V5e-3
p3631
tp3632
tp3633
Rp3634
sg3542
g3543
sg3423
g6
(g7
S'QString'
p3635
(V1e9
p3636
tp3637
tp3638
Rp3639
sg3429
g6
(g7
S'QString'
p3640
(V1
p3641
tp3642
tp3643
Rp3644
sg3534
g3535
sg3435
g6
(g7
S'QString'
p3645
(V180
p3646
tp3647
tp3648
Rp3649
sg3441
g6
(g7
S'QString'
p3650
(V4
p3651
tp3652
tp3653
Rp3654
sg3447
g6
(g7
S'QString'
p3655
(V1
p3656
tp3657
tp3658
Rp3659
sg3453
g3454
sg3455
g6
(g7
S'QString'
p3660
(V2
p3661
tp3662
tp3663
Rp3664
sg3461
g6
(g7
S'QString'
p3665
(V0
p3666
tp3667
tp3668
Rp3669
sg3467
g6
(g7
S'QString'
p3670
(V0
p3671
tp3672
tp3673
Rp3674
sg3369
g3370
sg3473
g3474
sg3475
g3476
sg3477
g3478
sg3479
g162
sg3480
g3481
sg3482
g6
(g7
S'QString'
p3675
(V0
p3676
tp3677
tp3678
Rp3679
sg3488
g3489
sg3490
g3491
sg3492
g6
(g7
S'QString'
p3680
(V64
p3681
tp3682
tp3683
Rp3684
sg3498
g3499
sg3500
g6
(g7
S'QString'
p3685
(V1.0
p3686
tp3687
tp3688
Rp3689
sg3506
g3507
sg3508
g3509
sg3516
g6
(g7
S'QString'
p3690
(V0
p3691
tp3692
tp3693
Rp3694
sg3522
g6
(g7
S'QString'
p3695
(V32
p3696
tp3697
tp3698
Rp3699
sg3528
g6
(g7
S'QString'
p3700
(V32
p3701
tp3702
tp3703
Rp3704
sg3349
g6
(g7
S'QString'
p3705
(V0.1
p3706
tp3707
tp3708
Rp3709
sg3536
g6
(g7
S'QString'
p3710
(V50e-6
p3711
tp3712
tp3713
Rp3714
sg3417
g6
(g7
S'QString'
p3715
(V0.9
p3716
tp3717
tp3718
Rp3719
sg3544
g6
(g7
S'QString'
p3720
(V0.75
p3721
tp3722
tp3723
Rp3724
sg3550
g3551
sg3552
g6
(g7
S'QString'
p3725
(Vtest_0252
p3726
tp3727
tp3728
Rp3729
ssg3558
g3559
sg3560
I32520
ssS'test_0251'
p3730
(dp3731
g3321
(dp3732
g3323
g6
(g7
S'QString'
p3733
(V5
p3734
tp3735
tp3736
Rp3737
sg3329
g6
(g7
S'QString'
p3738
(V0
p3739
tp3740
tp3741
Rp3742
sg3335
g3336
sg3337
g6
(g7
S'QString'
p3743
(V64
p3744
tp3745
tp3746
Rp3747
sg3343
g6
(g7
S'QString'
p3748
(V1
p3749
tp3750
tp3751
Rp3752
sg3349
g6
(g7
S'QString'
p3753
(V0.1
p3754
tp3755
tp3756
Rp3757
sg3355
g6
(g7
S'QString'
p3758
(V0.1
p3759
tp3760
tp3761
Rp3762
sg3361
S'OLT_ONLINE_NASC'
p3763
sg3363
g6
(g7
S'QString'
p3764
(V300
p3765
tp3766
tp3767
Rp3768
sg3369
g3370
sg3371
g3372
sg3373
g6
(g7
S'QString'
p3769
(V50e-6
p3770
tp3771
tp3772
Rp3773
sg3379
g6
(g7
S'QString'
p3774
(V156876
p3775
tp3776
tp3777
Rp3778
sg3385
g6
(g7
S'QString'
p3779
(V0.0005
p3780
tp3781
tp3782
Rp3783
sg3391
g6
(g7
S'QString'
p3784
(V0.005
p3785
tp3786
tp3787
Rp3788
sg3397
g6
(g7
S'QString'
p3789
(V156876
p3790
tp3791
tp3792
Rp3793
sg3403
g3404
sg3405
g6
(g7
S'QString'
p3794
(V1e-6
p3795
tp3796
tp3797
Rp3798
sg3411
g6
(g7
S'QString'
p3799
(V5e-3
p3800
tp3801
tp3802
Rp3803
sg3417
g6
(g7
S'QString'
p3804
(V0.9
p3805
tp3806
tp3807
Rp3808
sg3423
g6
(g7
S'QString'
p3809
(V1e9
p3810
tp3811
tp3812
Rp3813
sg3429
g6
(g7
S'QString'
p3814
(V1
p3815
tp3816
tp3817
Rp3818
sg3435
g6
(g7
S'QString'
p3819
(V180
p3820
tp3821
tp3822
Rp3823
sg3441
g6
(g7
S'QString'
p3824
(V4
p3825
tp3826
tp3827
Rp3828
sg3447
g6
(g7
S'QString'
p3829
(V1
p3830
tp3831
tp3832
Rp3833
sg3453
g3454
sg3455
g6
(g7
S'QString'
p3834
(V2
p3835
tp3836
tp3837
Rp3838
sg3461
g6
(g7
S'QString'
p3839
(V0
p3840
tp3841
tp3842
Rp3843
sg3467
g6
(g7
S'QString'
p3844
(V0
p3845
tp3846
tp3847
Rp3848
sg3473
g3474
sg3475
g3476
sg3477
g3478
sg3479
g162
sg3480
g3481
sg3482
g6
(g7
S'QString'
p3849
(V0
p3850
tp3851
tp3852
Rp3853
sg3488
g3489
sg3490
g3491
sg3492
g6
(g7
S'QString'
p3854
(V64
p3855
tp3856
tp3857
Rp3858
sg3498
g3499
sg3500
g6
(g7
S'QString'
p3859
(V1.0
p3860
tp3861
tp3862
Rp3863
sg3506
g3507
sg3508
g3509
sg3510
g6
(g7
S'QString'
p3864
(V1.0
p3865
tp3866
tp3867
Rp3868
sg3516
g6
(g7
S'QString'
p3869
(V0
p3870
tp3871
tp3872
Rp3873
sg3522
g6
(g7
S'QString'
p3874
(V32
p3875
tp3876
tp3877
Rp3878
sg3528
g6
(g7
S'QString'
p3879
(V32
p3880
tp3881
tp3882
Rp3883
sg3534
g3535
sg3536
g6
(g7
S'QString'
p3884
(V50e-6
p3885
tp3886
tp3887
Rp3888
sg3542
g3543
sg3544
g6
(g7
S'QString'
p3889
(V0.75
p3890
tp3891
tp3892
Rp3893
sg3550
g3551
sg3552
g6
(g7
S'QString'
p3894
(Vtest_0251
p3895
tp3896
tp3897
Rp3898
ssg3558
g3559
sg3560
I32485
ssS'test_0250'
p3899
(dp3900
g3321
(dp3901
g3323
g6
(g7
S'QString'
p3902
(V5
p3903
tp3904
tp3905
Rp3906
sg3329
g6
(g7
S'QString'
p3907
(V0
p3908
tp3909
tp3910
Rp3911
sg3335
g3336
sg3337
g6
(g7
S'QString'
p3912
(V64
p3913
tp3914
tp3915
Rp3916
sg3343
g6
(g7
S'QString'
p3917
(V1
p3918
tp3919
tp3920
Rp3921
sg3355
g6
(g7
S'QString'
p3922
(V0.1
p3923
tp3924
tp3925
Rp3926
sg3361
S'OLT_ONLINE_JIT_EAAF'
p3927
sg3363
g6
(g7
S'QString'
p3928
(V300
p3929
tp3930
tp3931
Rp3932
sg3510
g6
(g7
S'QString'
p3933
(V1.0
p3934
tp3935
tp3936
Rp3937
sg3379
g6
(g7
S'QString'
p3938
(V156876
p3939
tp3940
tp3941
Rp3942
sg3373
g6
(g7
S'QString'
p3943
(V50e-6
p3944
tp3945
tp3946
Rp3947
sg3371
g3372
sg3385
g6
(g7
S'QString'
p3948
(V0.0005
p3949
tp3950
tp3951
Rp3952
sg3391
g6
(g7
S'QString'
p3953
(V0.005
p3954
tp3955
tp3956
Rp3957
sg3397
g6
(g7
S'QString'
p3958
(V156876
p3959
tp3960
tp3961
Rp3962
sg3403
g3404
sg3405
g6
(g7
S'QString'
p3963
(V1e-6
p3964
tp3965
tp3966
Rp3967
sg3411
g6
(g7
S'QString'
p3968
(V5e-3
p3969
tp3970
tp3971
Rp3972
sg3542
g3543
sg3423
g6
(g7
S'QString'
p3973
(V1e9
p3974
tp3975
tp3976
Rp3977
sg3429
g6
(g7
S'QString'
p3978
(V1
p3979
tp3980
tp3981
Rp3982
sg3534
g3535
sg3435
g6
(g7
S'QString'
p3983
(V180
p3984
tp3985
tp3986
Rp3987
sg3441
g6
(g7
S'QString'
p3988
(V4
p3989
tp3990
tp3991
Rp3992
sg3447
g6
(g7
S'QString'
p3993
(V1
p3994
tp3995
tp3996
Rp3997
sg3453
g3454
sg3455
g6
(g7
S'QString'
p3998
(V2
p3999
tp4000
tp4001
Rp4002
sg3461
g6
(g7
S'QString'
p4003
(V0
p4004
tp4005
tp4006
Rp4007
sg3467
g6
(g7
S'QString'
p4008
(V0
p4009
tp4010
tp4011
Rp4012
sg3369
g3370
sg3473
g3474
sg3475
g3476
sg3477
g3478
sg3479
g162
sg3480
g3481
sg3482
g6
(g7
S'QString'
p4013
(V0
p4014
tp4015
tp4016
Rp4017
sg3488
g3489
sg3490
g3491
sg3492
g6
(g7
S'QString'
p4018
(V64
p4019
tp4020
tp4021
Rp4022
sg3498
g3499
sg3500
g6
(g7
S'QString'
p4023
(V1.0
p4024
tp4025
tp4026
Rp4027
sg3506
g3507
sg3508
g3509
sg3516
g6
(g7
S'QString'
p4028
(V0
p4029
tp4030
tp4031
Rp4032
sg3522
g6
(g7
S'QString'
p4033
(V32
p4034
tp4035
tp4036
Rp4037
sg3528
g6
(g7
S'QString'
p4038
(V32
p4039
tp4040
tp4041
Rp4042
sg3349
g6
(g7
S'QString'
p4043
(V0.1
p4044
tp4045
tp4046
Rp4047
sg3536
g6
(g7
S'QString'
p4048
(V50e-6
p4049
tp4050
tp4051
Rp4052
sg3417
g6
(g7
S'QString'
p4053
(V0.9
p4054
tp4055
tp4056
Rp4057
sg3544
g6
(g7
S'QString'
p4058
(V0.75
p4059
tp4060
tp4061
Rp4062
sg3550
g3551
sg3552
g6
(g7
S'QString'
p4063
(Vtest_0250
p4064
tp4065
tp4066
Rp4067
ssg3558
g3559
sg3560
I32443
ssS'test_0257'
p4068
(dp4069
g2668
I335
sg2669
g2670
sg2671
(dp4070
g2673
g6
(g7
S'QString'
p4071
(V5
p4072
tp4073
tp4074
Rp4075
sg2679
g6
(g7
S'QString'
p4076
(V0
p4077
tp4078
tp4079
Rp4080
sg2685
g2686
sg2687
g6
(g7
S'QString'
p4081
(V64
p4082
tp4083
tp4084
Rp4085
sg2693
g6
(g7
S'QString'
p4086
(V1
p4087
tp4088
tp4089
Rp4090
sg2699
g6
(g7
S'QString'
p4091
(V0.1
p4092
tp4093
tp4094
Rp4095
sg2705
g6
(g7
S'QString'
p4096
(V0.1
p4097
tp4098
tp4099
Rp4100
sg2711
S'OLT_SPD_LPT'
p4101
sg2713
g6
(g7
S'QString'
p4102
(V300
p4103
tp4104
tp4105
Rp4106
sg2719
g6
(g7
S'QString'
p4107
(V1.0
p4108
tp4109
tp4110
Rp4111
sg2725
g6
(g7
S'QString'
p4112
(V156876
p4113
tp4114
tp4115
Rp4116
sg2731
g6
(g7
S'QString'
p4117
(V50e-6
p4118
tp4119
tp4120
Rp4121
sg2737
g2738
sg2739
g6
(g7
S'QString'
p4122
(V0.0005
p4123
tp4124
tp4125
Rp4126
sg2745
g6
(g7
S'QString'
p4127
(V0.005
p4128
tp4129
tp4130
Rp4131
sg2751
g6
(g7
S'QString'
p4132
(V156876
p4133
tp4134
tp4135
Rp4136
sg2757
g2758
sg2759
g6
(g7
S'QString'
p4137
(V1e-6
p4138
tp4139
tp4140
Rp4141
sg2765
g6
(g7
S'QString'
p4142
(V5e-3
p4143
tp4144
tp4145
Rp4146
sg2771
g6
(g7
S'QString'
p4147
(V0.9
p4148
tp4149
tp4150
Rp4151
sg2777
g6
(g7
S'QString'
p4152
(V1e9
p4153
tp4154
tp4155
Rp4156
sg2783
g6
(g7
S'QString'
p4157
(V1
p4158
tp4159
tp4160
Rp4161
sg2789
g6
(g7
S'QString'
p4162
(V180
p4163
tp4164
tp4165
Rp4166
sg2795
g6
(g7
S'QString'
p4167
(V4
p4168
tp4169
tp4170
Rp4171
sg2801
g6
(g7
S'QString'
p4172
(V1
p4173
tp4174
tp4175
Rp4176
sg2807
g2808
sg2809
g6
(g7
S'QString'
p4177
(V2
p4178
tp4179
tp4180
Rp4181
sg2815
g6
(g7
S'QString'
p4182
(V0
p4183
tp4184
tp4185
Rp4186
sg2821
g6
(g7
S'QString'
p4187
(V0
p4188
tp4189
tp4190
Rp4191
sg2827
g2828
sg2829
g2830
sg2831
g2832
sg2833
g2834
sg2835
g162
sg2836
g2837
sg2838
g6
(g7
S'QString'
p4192
(V0
p4193
tp4194
tp4195
Rp4196
sg2844
g2845
sg2846
g2847
sg2848
g6
(g7
S'QString'
p4197
(V64
p4198
tp4199
tp4200
Rp4201
sg2854
g2855
sg2856
g6
(g7
S'QString'
p4202
(V1.0
p4203
tp4204
tp4205
Rp4206
sg2862
g2863
sg2864
g2865
sg2866
g6
(g7
S'QString'
p4207
(V0
p4208
tp4209
tp4210
Rp4211
sg2872
g6
(g7
S'QString'
p4212
(V32
p4213
tp4214
tp4215
Rp4216
sg2878
g6
(g7
S'QString'
p4217
(V32
p4218
tp4219
tp4220
Rp4221
sg2884
g2885
sg2886
g6
(g7
S'QString'
p4222
(V50e-6
p4223
tp4224
tp4225
Rp4226
sg2892
g2893
sg2894
g6
(g7
S'QString'
p4227
(V0.75
p4228
tp4229
tp4230
Rp4231
sg2900
g2901
sg2902
g6
(g7
S'QString'
p4232
(Vtest_0257
p4233
tp4234
tp4235
Rp4236
sssS'test_0256'
p4237
(dp4238
g3321
(dp4239
g3323
g6
(g7
S'QString'
p4240
(V5
p4241
tp4242
tp4243
Rp4244
sg3329
g6
(g7
S'QString'
p4245
(V0
p4246
tp4247
tp4248
Rp4249
sg3335
g3336
sg3337
g6
(g7
S'QString'
p4250
(V64
p4251
tp4252
tp4253
Rp4254
sg3343
g6
(g7
S'QString'
p4255
(V1
p4256
tp4257
tp4258
Rp4259
sg3355
g6
(g7
S'QString'
p4260
(V0.1
p4261
tp4262
tp4263
Rp4264
sg3361
S'OLT_APS'
p4265
sg3363
g6
(g7
S'QString'
p4266
(V300
p4267
tp4268
tp4269
Rp4270
sg3510
g6
(g7
S'QString'
p4271
(V1.0
p4272
tp4273
tp4274
Rp4275
sg3379
g6
(g7
S'QString'
p4276
(V156876
p4277
tp4278
tp4279
Rp4280
sg3373
g6
(g7
S'QString'
p4281
(V50e-6
p4282
tp4283
tp4284
Rp4285
sg3371
g3372
sg3385
g6
(g7
S'QString'
p4286
(V0.0005
p4287
tp4288
tp4289
Rp4290
sg3391
g6
(g7
S'QString'
p4291
(V0.005
p4292
tp4293
tp4294
Rp4295
sg3397
g6
(g7
S'QString'
p4296
(V156876
p4297
tp4298
tp4299
Rp4300
sg3403
g3404
sg3405
g6
(g7
S'QString'
p4301
(V1e-6
p4302
tp4303
tp4304
Rp4305
sg3411
g6
(g7
S'QString'
p4306
(V5e-3
p4307
tp4308
tp4309
Rp4310
sg3542
g3543
sg3423
g6
(g7
S'QString'
p4311
(V1e9
p4312
tp4313
tp4314
Rp4315
sg3429
g6
(g7
S'QString'
p4316
(V1
p4317
tp4318
tp4319
Rp4320
sg3534
g3535
sg3435
g6
(g7
S'QString'
p4321
(V180
p4322
tp4323
tp4324
Rp4325
sg3441
g6
(g7
S'QString'
p4326
(V4
p4327
tp4328
tp4329
Rp4330
sg3447
g6
(g7
S'QString'
p4331
(V1
p4332
tp4333
tp4334
Rp4335
sg3453
g3454
sg3455
g6
(g7
S'QString'
p4336
(V2
p4337
tp4338
tp4339
Rp4340
sg3461
g6
(g7
S'QString'
p4341
(V0
p4342
tp4343
tp4344
Rp4345
sg3467
g6
(g7
S'QString'
p4346
(V0
p4347
tp4348
tp4349
Rp4350
sg3369
g3370
sg3473
g3474
sg3475
g3476
sg3477
g3478
sg3479
g162
sg3480
g3481
sg3482
g6
(g7
S'QString'
p4351
(V0
p4352
tp4353
tp4354
Rp4355
sg3488
g3489
sg3490
g3491
sg3492
g6
(g7
S'QString'
p4356
(V64
p4357
tp4358
tp4359
Rp4360
sg3498
g3499
sg3500
g6
(g7
S'QString'
p4361
(V1.0
p4362
tp4363
tp4364
Rp4365
sg3506
g3507
sg3508
g3509
sg3516
g6
(g7
S'QString'
p4366
(V0
p4367
tp4368
tp4369
Rp4370
sg3522
g6
(g7
S'QString'
p4371
(V32
p4372
tp4373
tp4374
Rp4375
sg3528
g6
(g7
S'QString'
p4376
(V32
p4377
tp4378
tp4379
Rp4380
sg3349
g6
(g7
S'QString'
p4381
(V0.1
p4382
tp4383
tp4384
Rp4385
sg3536
g6
(g7
S'QString'
p4386
(V50e-6
p4387
tp4388
tp4389
Rp4390
sg3417
g6
(g7
S'QString'
p4391
(V0.9
p4392
tp4393
tp4394
Rp4395
sg3544
g6
(g7
S'QString'
p4396
(V0.75
p4397
tp4398
tp4399
Rp4400
sg3550
g3551
sg3552
g6
(g7
S'QString'
p4401
(Vtest_0256
p4402
tp4403
tp4404
Rp4405
ssg3558
g3559
sg3560
I32694
ssS'test_0255'
p4406
(dp4407
g3321
(dp4408
g3323
g6
(g7
S'QString'
p4409
(V5
p4410
tp4411
tp4412
Rp4413
sg3329
g6
(g7
S'QString'
p4414
(V0
p4415
tp4416
tp4417
Rp4418
sg3335
g3336
sg3337
g6
(g7
S'QString'
p4419
(V64
p4420
tp4421
tp4422
Rp4423
sg3343
g6
(g7
S'QString'
p4424
(V1
p4425
tp4426
tp4427
Rp4428
sg3349
g6
(g7
S'QString'
p4429
(V0.1
p4430
tp4431
tp4432
Rp4433
sg3355
g6
(g7
S'QString'
p4434
(V0.1
p4435
tp4436
tp4437
Rp4438
sg3361
S'OLT_LFJ'
p4439
sg3363
g6
(g7
S'QString'
p4440
(V300
p4441
tp4442
tp4443
Rp4444
sg3369
g3370
sg3371
g3372
sg3373
g6
(g7
S'QString'
p4445
(V50e-6
p4446
tp4447
tp4448
Rp4449
sg3379
g6
(g7
S'QString'
p4450
(V156876
p4451
tp4452
tp4453
Rp4454
sg3385
g6
(g7
S'QString'
p4455
(V0.0005
p4456
tp4457
tp4458
Rp4459
sg3391
g6
(g7
S'QString'
p4460
(V0.005
p4461
tp4462
tp4463
Rp4464
sg3397
g6
(g7
S'QString'
p4465
(V156876
p4466
tp4467
tp4468
Rp4469
sg3403
g3404
sg3405
g6
(g7
S'QString'
p4470
(V1e-6
p4471
tp4472
tp4473
Rp4474
sg3411
g6
(g7
S'QString'
p4475
(V5e-3
p4476
tp4477
tp4478
Rp4479
sg3417
g6
(g7
S'QString'
p4480
(V0.9
p4481
tp4482
tp4483
Rp4484
sg3423
g6
(g7
S'QString'
p4485
(V1e9
p4486
tp4487
tp4488
Rp4489
sg3429
g6
(g7
S'QString'
p4490
(V1
p4491
tp4492
tp4493
Rp4494
sg3435
g6
(g7
S'QString'
p4495
(V180
p4496
tp4497
tp4498
Rp4499
sg3441
g6
(g7
S'QString'
p4500
(V4
p4501
tp4502
tp4503
Rp4504
sg3447
g6
(g7
S'QString'
p4505
(V1
p4506
tp4507
tp4508
Rp4509
sg3453
g3454
sg3455
g6
(g7
S'QString'
p4510
(V2
p4511
tp4512
tp4513
Rp4514
sg3461
g6
(g7
S'QString'
p4515
(V0
p4516
tp4517
tp4518
Rp4519
sg3467
g6
(g7
S'QString'
p4520
(V0
p4521
tp4522
tp4523
Rp4524
sg3473
g3474
sg3475
g3476
sg3477
g3478
sg3479
g162
sg3480
g3481
sg3482
g6
(g7
S'QString'
p4525
(V0
p4526
tp4527
tp4528
Rp4529
sg3488
g3489
sg3490
g3491
sg3492
g6
(g7
S'QString'
p4530
(V64
p4531
tp4532
tp4533
Rp4534
sg3498
g3499
sg3500
g6
(g7
S'QString'
p4535
(V1.0
p4536
tp4537
tp4538
Rp4539
sg3506
g3507
sg3508
g3509
sg3510
g6
(g7
S'QString'
p4540
(V1.0
p4541
tp4542
tp4543
Rp4544
sg3516
g6
(g7
S'QString'
p4545
(V0
p4546
tp4547
tp4548
Rp4549
sg3522
g6
(g7
S'QString'
p4550
(V32
p4551
tp4552
tp4553
Rp4554
sg3528
g6
(g7
S'QString'
p4555
(V32
p4556
tp4557
tp4558
Rp4559
sg3534
g3535
sg3536
g6
(g7
S'QString'
p4560
(V50e-6
p4561
tp4562
tp4563
Rp4564
sg3542
g3543
sg3544
g6
(g7
S'QString'
p4565
(V0.75
p4566
tp4567
tp4568
Rp4569
sg3550
g3551
sg3552
g6
(g7
S'QString'
p4570
(Vtest_0255
p4571
tp4572
tp4573
Rp4574
ssg3558
g3559
sg3560
I32655
ssS'test_0254'
p4575
(dp4576
g3321
(dp4577
g3323
g6
(g7
S'QString'
p4578
(V5
p4579
tp4580
tp4581
Rp4582
sg3329
g6
(g7
S'QString'
p4583
(V0
p4584
tp4585
tp4586
Rp4587
sg3335
g3336
sg3337
g6
(g7
S'QString'
p4588
(V64
p4589
tp4590
tp4591
Rp4592
sg3343
g6
(g7
S'QString'
p4593
(V1
p4594
tp4595
tp4596
Rp4597
sg3355
g6
(g7
S'QString'
p4598
(V0.1
p4599
tp4600
tp4601
Rp4602
sg3361
S'OLT_LEAST_ASSIGNED'
p4603
sg3363
g6
(g7
S'QString'
p4604
(V300
p4605
tp4606
tp4607
Rp4608
sg3510
g6
(g7
S'QString'
p4609
(V1.0
p4610
tp4611
tp4612
Rp4613
sg3379
g6
(g7
S'QString'
p4614
(V156876
p4615
tp4616
tp4617
Rp4618
sg3373
g6
(g7
S'QString'
p4619
(V50e-6
p4620
tp4621
tp4622
Rp4623
sg3371
g3372
sg3385
g6
(g7
S'QString'
p4624
(V0.0005
p4625
tp4626
tp4627
Rp4628
sg3391
g6
(g7
S'QString'
p4629
(V0.005
p4630
tp4631
tp4632
Rp4633
sg3397
g6
(g7
S'QString'
p4634
(V156876
p4635
tp4636
tp4637
Rp4638
sg3403
g3404
sg3405
g6
(g7
S'QString'
p4639
(V1e-6
p4640
tp4641
tp4642
Rp4643
sg3411
g6
(g7
S'QString'
p4644
(V5e-3
p4645
tp4646
tp4647
Rp4648
sg3542
g3543
sg3423
g6
(g7
S'QString'
p4649
(V1e9
p4650
tp4651
tp4652
Rp4653
sg3429
g6
(g7
S'QString'
p4654
(V1
p4655
tp4656
tp4657
Rp4658
sg3534
g3535
sg3435
g6
(g7
S'QString'
p4659
(V180
p4660
tp4661
tp4662
Rp4663
sg3441
g6
(g7
S'QString'
p4664
(V4
p4665
tp4666
tp4667
Rp4668
sg3447
g6
(g7
S'QString'
p4669
(V1
p4670
tp4671
tp4672
Rp4673
sg3453
g3454
sg3455
g6
(g7
S'QString'
p4674
(V2
p4675
tp4676
tp4677
Rp4678
sg3461
g6
(g7
S'QString'
p4679
(V0
p4680
tp4681
tp4682
Rp4683
sg3467
g6
(g7
S'QString'
p4684
(V0
p4685
tp4686
tp4687
Rp4688
sg3369
g3370
sg3473
g3474
sg3475
g3476
sg3477
g3478
sg3479
g162
sg3480
g3481
sg3482
g6
(g7
S'QString'
p4689
(V0
p4690
tp4691
tp4692
Rp4693
sg3488
g3489
sg3490
g3491
sg3492
g6
(g7
S'QString'
p4694
(V64
p4695
tp4696
tp4697
Rp4698
sg3498
g3499
sg3500
g6
(g7
S'QString'
p4699
(V1.0
p4700
tp4701
tp4702
Rp4703
sg3506
g3507
sg3508
g3509
sg3516
g6
(g7
S'QString'
p4704
(V0
p4705
tp4706
tp4707
Rp4708
sg3522
g6
(g7
S'QString'
p4709
(V32
p4710
tp4711
tp4712
Rp4713
sg3528
g6
(g7
S'QString'
p4714
(V32
p4715
tp4716
tp4717
Rp4718
sg3349
g6
(g7
S'QString'
p4719
(V0.1
p4720
tp4721
tp4722
Rp4723
sg3536
g6
(g7
S'QString'
p4724
(V50e-6
p4725
tp4726
tp4727
Rp4728
sg3417
g6
(g7
S'QString'
p4729
(V0.9
p4730
tp4731
tp4732
Rp4733
sg3544
g6
(g7
S'QString'
p4734
(V0.75
p4735
tp4736
tp4737
Rp4738
sg3550
g3551
sg3552
g6
(g7
S'QString'
p4739
(Vtest_0254
p4740
tp4741
tp4742
Rp4743
ssg3558
g3559
sg3560
I32614
ssS'test_0239'
p4744
(dp4745
g3321
(dp4746
g3323
g6
(g7
S'QString'
p4747
(V5
p4748
tp4749
tp4750
Rp4751
sg3329
g6
(g7
S'QString'
p4752
(V0
p4753
tp4754
tp4755
Rp4756
sg3335
g3336
sg3337
g6
(g7
S'QString'
p4757
(V64
p4758
tp4759
tp4760
Rp4761
sg3343
g6
(g7
S'QString'
p4762
(V1
p4763
tp4764
tp4765
Rp4766
sg3349
g6
(g7
S'QString'
p4767
(V0.1
p4768
tp4769
tp4770
Rp4771
sg3355
g6
(g7
S'QString'
p4772
(V0.1
p4773
tp4774
tp4775
Rp4776
sg3361
S'OLT_SPD_LPT'
p4777
sg3363
g6
(g7
S'QString'
p4778
(V300
p4779
tp4780
tp4781
Rp4782
sg3369
g3370
sg3371
g3372
sg3373
g6
(g7
S'QString'
p4783
(V50e-6
p4784
tp4785
tp4786
Rp4787
sg3379
g6
(g7
S'QString'
p4788
(V156876
p4789
tp4790
tp4791
Rp4792
sg3385
g6
(g7
S'QString'
p4793
(V0.0005
p4794
tp4795
tp4796
Rp4797
sg3391
g6
(g7
S'QString'
p4798
(V0.005
p4799
tp4800
tp4801
Rp4802
sg3397
g6
(g7
S'QString'
p4803
(V156876
p4804
tp4805
tp4806
Rp4807
sg3403
g3404
sg3405
g6
(g7
S'QString'
p4808
(V1e-6
p4809
tp4810
tp4811
Rp4812
sg3411
g6
(g7
S'QString'
p4813
(V5e-3
p4814
tp4815
tp4816
Rp4817
sg3417
g6
(g7
S'QString'
p4818
(V0.9
p4819
tp4820
tp4821
Rp4822
sg3423
g6
(g7
S'QString'
p4823
(V1e9
p4824
tp4825
tp4826
Rp4827
sg3429
g6
(g7
S'QString'
p4828
(V1
p4829
tp4830
tp4831
Rp4832
sg3435
g6
(g7
S'QString'
p4833
(V180
p4834
tp4835
tp4836
Rp4837
sg3441
g6
(g7
S'QString'
p4838
(V4
p4839
tp4840
tp4841
Rp4842
sg3447
g6
(g7
S'QString'
p4843
(V1
p4844
tp4845
tp4846
Rp4847
sg3453
g3454
sg3455
g6
(g7
S'QString'
p4848
(V2
p4849
tp4850
tp4851
Rp4852
sg3461
g6
(g7
S'QString'
p4853
(V0
p4854
tp4855
tp4856
Rp4857
sg3467
g6
(g7
S'QString'
p4858
(V0
p4859
tp4860
tp4861
Rp4862
sg3473
g3474
sg3475
g3476
sg3477
g3478
sg3479
g162
sg3480
g3481
sg3482
g6
(g7
S'QString'
p4863
(V0
p4864
tp4865
tp4866
Rp4867
sg3488
g3489
sg3490
g3491
sg3492
g6
(g7
S'QString'
p4868
(V64
p4869
tp4870
tp4871
Rp4872
sg3498
g3499
sg3500
g6
(g7
S'QString'
p4873
(V1.0
p4874
tp4875
tp4876
Rp4877
sg3506
g3507
sg3508
g3509
sg3510
g6
(g7
S'QString'
p4878
(V1.0
p4879
tp4880
tp4881
Rp4882
sg3516
g6
(g7
S'QString'
p4883
(V0
p4884
tp4885
tp4886
Rp4887
sg3522
g6
(g7
S'QString'
p4888
(V32
p4889
tp4890
tp4891
Rp4892
sg3528
g6
(g7
S'QString'
p4893
(V32
p4894
tp4895
tp4896
Rp4897
sg3534
g3535
sg3536
g6
(g7
S'QString'
p4898
(V50e-6
p4899
tp4900
tp4901
Rp4902
sg3542
g3543
sg3544
g6
(g7
S'QString'
p4903
(V0.75
p4904
tp4905
tp4906
Rp4907
sg3550
g3551
sg3552
g6
(g7
S'QString'
p4908
(Vtest_0239
p4909
tp4910
tp4911
Rp4912
ssg3558
g3559
sg3560
I32021
ssS'test_0238'
p4913
(dp4914
g3321
(dp4915
g3323
g6
(g7
S'QString'
p4916
(V5
p4917
tp4918
tp4919
Rp4920
sg3329
g6
(g7
S'QString'
p4921
(V0
p4922
tp4923
tp4924
Rp4925
sg3335
g3336
sg3337
g6
(g7
S'QString'
p4926
(V64
p4927
tp4928
tp4929
Rp4930
sg3343
g6
(g7
S'QString'
p4931
(V1
p4932
tp4933
tp4934
Rp4935
sg3355
g6
(g7
S'QString'
p4936
(V0.1
p4937
tp4938
tp4939
Rp4940
sg3361
S'OLT_EAAF'
p4941
sg3363
g6
(g7
S'QString'
p4942
(V300
p4943
tp4944
tp4945
Rp4946
sg3510
g6
(g7
S'QString'
p4947
(V1.0
p4948
tp4949
tp4950
Rp4951
sg3379
g6
(g7
S'QString'
p4952
(V156876
p4953
tp4954
tp4955
Rp4956
sg3373
g6
(g7
S'QString'
p4957
(V50e-6
p4958
tp4959
tp4960
Rp4961
sg3371
g3372
sg3385
g6
(g7
S'QString'
p4962
(V0.0005
p4963
tp4964
tp4965
Rp4966
sg3391
g6
(g7
S'QString'
p4967
(V0.005
p4968
tp4969
tp4970
Rp4971
sg3397
g6
(g7
S'QString'
p4972
(V156876
p4973
tp4974
tp4975
Rp4976
sg3403
g3404
sg3405
g6
(g7
S'QString'
p4977
(V1e-6
p4978
tp4979
tp4980
Rp4981
sg3411
g6
(g7
S'QString'
p4982
(V5e-3
p4983
tp4984
tp4985
Rp4986
sg3542
g3543
sg3423
g6
(g7
S'QString'
p4987
(V1e9
p4988
tp4989
tp4990
Rp4991
sg3429
g6
(g7
S'QString'
p4992
(V1
p4993
tp4994
tp4995
Rp4996
sg3534
g3535
sg3435
g6
(g7
S'QString'
p4997
(V180
p4998
tp4999
tp5000
Rp5001
sg3441
g6
(g7
S'QString'
p5002
(V4
p5003
tp5004
tp5005
Rp5006
sg3447
g6
(g7
S'QString'
p5007
(V1
p5008
tp5009
tp5010
Rp5011
sg3453
g3454
sg3455
g6
(g7
S'QString'
p5012
(V2
p5013
tp5014
tp5015
Rp5016
sg3461
g6
(g7
S'QString'
p5017
(V0
p5018
tp5019
tp5020
Rp5021
sg3467
g6
(g7
S'QString'
p5022
(V0
p5023
tp5024
tp5025
Rp5026
sg3369
g3370
sg3473
g3474
sg3475
g3476
sg3477
g3478
sg3479
g162
sg3480
g3481
sg3482
g6
(g7
S'QString'
p5027
(V0
p5028
tp5029
tp5030
Rp5031
sg3488
g3489
sg3490
g3491
sg3492
g6
(g7
S'QString'
p5032
(V64
p5033
tp5034
tp5035
Rp5036
sg3498
g3499
sg3500
g6
(g7
S'QString'
p5037
(V1.0
p5038
tp5039
tp5040
Rp5041
sg3506
g3507
sg3508
g3509
sg3516
g6
(g7
S'QString'
p5042
(V0
p5043
tp5044
tp5045
Rp5046
sg3522
g6
(g7
S'QString'
p5047
(V32
p5048
tp5049
tp5050
Rp5051
sg3528
g6
(g7
S'QString'
p5052
(V32
p5053
tp5054
tp5055
Rp5056
sg3349
g6
(g7
S'QString'
p5057
(V0.1
p5058
tp5059
tp5060
Rp5061
sg3536
g6
(g7
S'QString'
p5062
(V50e-6
p5063
tp5064
tp5065
Rp5066
sg3417
g6
(g7
S'QString'
p5067
(V0.9
p5068
tp5069
tp5070
Rp5071
sg3544
g6
(g7
S'QString'
p5072
(V0.75
p5073
tp5074
tp5075
Rp5076
sg3550
g3551
sg3552
g6
(g7
S'QString'
p5077
(Vtest_0238
p5078
tp5079
tp5080
Rp5081
ssg3558
g3559
sg3560
I31986
ssS'test_0214'
p5082
(dp5083
S'params'
p5084
(dp5085
S'SV_NUM_MA_VALUES'
p5086
g6
(g7
S'QString'
p5087
(V5
p5088
tp5089
tp5090
Rp5091
sS'NUM_PREFERRED_ONU'
p5092
g6
(g7
S'QString'
p5093
(V0
p5094
tp5095
tp5096
Rp5097
sS'PREDICTION_TYPE'
p5098
S'FFBI'
p5099
sS'SCHEDULER_SLOT_SIZE'
p5100
g6
(g7
S'QString'
p5101
(V64
p5102
tp5103
tp5104
Rp5105
sS'START_LAMBDA'
p5106
g6
(g7
S'QString'
p5107
(V1
p5108
tp5109
tp5110
Rp5111
sS'LOAD_INCR'
p5112
g6
(g7
S'QString'
p5113
(V0.1
p5114
tp5115
tp5116
Rp5117
sS'OLT_TYPE'
p5118
S'OLT_ONLINE_NASC'
p5119
sS'SIM_TIME'
p5120
g6
(g7
S'QString'
p5121
(V300
p5122
tp5123
tp5124
Rp5125
sS'SV_DROP_SENSITIVITY'
p5126
g6
(g7
S'QString'
p5127
(V1.0
p5128
tp5129
tp5130
Rp5131
sS'MAX_GRANT_SIZE'
p5132
g6
(g7
S'QString'
p5133
(V156876
p5134
tp5135
tp5136
Rp5137
sS'MAX_PROP_DELAY'
p5138
g6
(g7
S'QString'
p5139
(V50e-6
p5140
tp5141
tp5142
Rp5143
sS'SCALABLE_VIDEO_TRAFFIC'
p5144
S'SCALABLE_VIDEO_OFF'
p5145
sS'SV_MIN_BOUND'
p5146
g6
(g7
S'QString'
p5147
(V0.0005
p5148
tp5149
tp5150
Rp5151
sS'SV_MAX_BOUND'
p5152
g6
(g7
S'QString'
p5153
(V0.005
p5154
tp5155
tp5156
Rp5157
sS'FIXED_GRANT_SIZE'
p5158
g6
(g7
S'QString'
p5159
(V156876
p5160
tp5161
tp5162
Rp5163
sS'VIDEO_DBA_TYPE'
p5164
S'VIDEO_DBA_LIMITED_GATE'
p5165
sS'GUARD_TIME'
p5166
g6
(g7
S'QString'
p5167
(V1e-6
p5168
tp5169
tp5170
Rp5171
sS'TUNING_TIME'
p5172
g6
(g7
S'QString'
p5173
(V5e-3
p5174
tp5175
tp5176
Rp5177
sS'SIM_TRACE'
p5178
S'SIM_TRACE_OFF'
p5179
sS'LINK_SPEED'
p5180
g6
(g7
S'QString'
p5181
(V1e9
p5182
tp5183
tp5184
Rp5185
sS'END_LAMBDA'
p5186
g6
(g7
S'QString'
p5187
(V1
p5188
tp5189
tp5190
Rp5191
sS'VIDEO_TRAFFIC'
p5192
S'VIDEO_TRAFFIC_OFF'
p5193
sS'SCHEDULER_NUM_SLOT'
p5194
g6
(g7
S'QString'
p5195
(V180
p5196
tp5197
tp5198
Rp5199
sS'SV_DROP_LAYER_THRESHOLD'
p5200
g6
(g7
S'QString'
p5201
(V4
p5202
tp5203
tp5204
Rp5205
sS'NUM_RUNS'
p5206
g6
(g7
S'QString'
p5207
(V1
p5208
tp5209
tp5210
Rp5211
sS'VIDEO_PREDICTION'
p5212
S'VIDEO_PREDICTION_OFF'
p5213
sS'HEAVY_LOAD'
p5214
g6
(g7
S'QString'
p5215
(V2
p5216
tp5217
tp5218
Rp5219
sS'NUM_LH_WDM_ONU'
p5220
g6
(g7
S'QString'
p5221
(V0
p5222
tp5223
tp5224
Rp5225
sS'NUM_UH_WDM_ONU'
p5226
g6
(g7
S'QString'
p5227
(V0
p5228
tp5229
tp5230
Rp5231
sS'DBA_TYPE'
p5232
S'DBA_LIMITED_GATE'
p5233
sS'SCALABLE_VIDEO_DROPPING_ALGORITHM'
p5234
S'SCALABLE_VIDEO_DROPPING_OFF'
p5235
sS'SCHEDULER_MAX_WINDOW'
p5236
S'0'
p5237
sS'GET_TAIL'
p5238
S'GET_TAIL_OFF'
p5239
sS'VIDEO_TRACE_FILE'
p5240
g162
sS'FIXED_PROP_DELAY'
p5241
S'FIXED_PROP_DELAY_OFF'
p5242
sS'NUM_WDM_ONU'
p5243
g6
(g7
S'QString'
p5244
(V0
p5245
tp5246
tp5247
Rp5248
sS'TRAFFIC_TYPE'
p5249
S'TRAFFIC_POISSON'
p5250
sS'GRANT_TRACE'
p5251
S'GRANT_TRACE_OFF'
p5252
sS'STARVE_THRESH'
p5253
g6
(g7
S'QString'
p5254
(V64
p5255
tp5256
tp5257
Rp5258
sS'VIDEO_RANDOM_START'
p5259
S'VIDEO_RANDOM_START_OFF'
p5260
sS'AVAIL_COST_WEIGHT'
p5261
g6
(g7
S'QString'
p5262
(V1.0
p5263
tp5264
tp5265
Rp5266
sS'TIME_SHIFT'
p5267
S'0.0'
p5268
sS'WDM_TYPE'
p5269
S'WDM_FIXED'
p5270
sS'NUM_HEAVY_ONU'
p5271
g6
(g7
S'QString'
p5272
(V0
p5273
tp5274
tp5275
Rp5276
sS'NUM_SS_STREAMS'
p5277
g6
(g7
S'QString'
p5278
(V32
p5279
tp5280
tp5281
Rp5282
sS'NUM_ONU'
p5283
g6
(g7
S'QString'
p5284
(V32
p5285
tp5286
tp5287
Rp5288
sS'START_LOAD'
p5289
g6
(g7
S'QString'
p5290
(V0.1
p5291
tp5292
tp5293
Rp5294
sS'FIXED_PROP_DELAY_VALUE'
p5295
g6
(g7
S'QString'
p5296
(V50e-6
p5297
tp5298
tp5299
Rp5300
sS'END_LOAD'
p5301
g6
(g7
S'QString'
p5302
(V0.9
p5303
tp5304
tp5305
Rp5306
sS'SS_HURST_PARAM'
p5307
g6
(g7
S'QString'
p5308
(V0.75
p5309
tp5310
tp5311
Rp5312
sS'FRAME_RATE'
p5313
S'30.0'
p5314
sS'simID'
p5315
g6
(g7
S'QString'
p5316
(Vtest_0214
p5317
tp5318
tp5319
Rp5320
ssS'host'
p5321
S'localhost'
p5322
sS'pid'
p5323
I27440
ssS'test_0219'
p5324
(dp5325
S'pid'
p5326
I29721
sS'host'
p5327
S'localhost'
p5328
sS'params'
p5329
(dp5330
S'SV_NUM_MA_VALUES'
p5331
g6
(g7
S'QString'
p5332
(V5
p5333
tp5334
tp5335
Rp5336
sS'NUM_PREFERRED_ONU'
p5337
g6
(g7
S'QString'
p5338
(V0
p5339
tp5340
tp5341
Rp5342
sS'PREDICTION_TYPE'
p5343
S'FFBI'
p5344
sS'SCHEDULER_SLOT_SIZE'
p5345
g6
(g7
S'QString'
p5346
(V64
p5347
tp5348
tp5349
Rp5350
sS'START_LAMBDA'
p5351
g6
(g7
S'QString'
p5352
(V1
p5353
tp5354
tp5355
Rp5356
sS'START_LOAD'
p5357
g6
(g7
S'QString'
p5358
(V0.1
p5359
tp5360
tp5361
Rp5362
sS'LOAD_INCR'
p5363
g6
(g7
S'QString'
p5364
(V0.1
p5365
tp5366
tp5367
Rp5368
sS'OLT_TYPE'
p5369
S'OLT_ONLINE_NASC'
p5370
sS'SIM_TIME'
p5371
g6
(g7
S'QString'
p5372
(V300
p5373
tp5374
tp5375
Rp5376
sS'SV_DROP_SENSITIVITY'
p5377
g6
(g7
S'QString'
p5378
(V1.0
p5379
tp5380
tp5381
Rp5382
sS'MAX_GRANT_SIZE'
p5383
g6
(g7
S'QString'
p5384
(V156876
p5385
tp5386
tp5387
Rp5388
sS'MAX_PROP_DELAY'
p5389
g6
(g7
S'QString'
p5390
(V50e-6
p5391
tp5392
tp5393
Rp5394
sS'SCALABLE_VIDEO_TRAFFIC'
p5395
S'SCALABLE_VIDEO_OFF'
p5396
sS'SV_MIN_BOUND'
p5397
g6
(g7
S'QString'
p5398
(V0.0005
p5399
tp5400
tp5401
Rp5402
sS'SV_MAX_BOUND'
p5403
g6
(g7
S'QString'
p5404
(V0.005
p5405
tp5406
tp5407
Rp5408
sS'FIXED_GRANT_SIZE'
p5409
g6
(g7
S'QString'
p5410
(V156876
p5411
tp5412
tp5413
Rp5414
sS'VIDEO_DBA_TYPE'
p5415
S'VIDEO_DBA_LIMITED_GATE'
p5416
sS'GUARD_TIME'
p5417
g6
(g7
S'QString'
p5418
(V1e-6
p5419
tp5420
tp5421
Rp5422
sS'TUNING_TIME'
p5423
g6
(g7
S'QString'
p5424
(V5e-3
p5425
tp5426
tp5427
Rp5428
sS'END_LOAD'
p5429
g6
(g7
S'QString'
p5430
(V0.9
p5431
tp5432
tp5433
Rp5434
sS'LINK_SPEED'
p5435
g6
(g7
S'QString'
p5436
(V1e9
p5437
tp5438
tp5439
Rp5440
sS'END_LAMBDA'
p5441
g6
(g7
S'QString'
p5442
(V1
p5443
tp5444
tp5445
Rp5446
sS'SCHEDULER_NUM_SLOT'
p5447
g6
(g7
S'QString'
p5448
(V180
p5449
tp5450
tp5451
Rp5452
sS'SV_DROP_LAYER_THRESHOLD'
p5453
g6
(g7
S'QString'
p5454
(V4
p5455
tp5456
tp5457
Rp5458
sS'NUM_RUNS'
p5459
g6
(g7
S'QString'
p5460
(V1
p5461
tp5462
tp5463
Rp5464
sS'VIDEO_PREDICTION'
p5465
S'VIDEO_PREDICTION_OFF'
p5466
sS'HEAVY_LOAD'
p5467
g6
(g7
S'QString'
p5468
(V2
p5469
tp5470
tp5471
Rp5472
sS'NUM_LH_WDM_ONU'
p5473
g6
(g7
S'QString'
p5474
(V0
p5475
tp5476
tp5477
Rp5478
sS'NUM_UH_WDM_ONU'
p5479
g6
(g7
S'QString'
p5480
(V0
p5481
tp5482
tp5483
Rp5484
sS'DBA_TYPE'
p5485
S'DBA_LIMITED_GATE'
p5486
sS'SCALABLE_VIDEO_DROPPING_ALGORITHM'
p5487
S'SCALABLE_VIDEO_DROPPING_OFF'
p5488
sS'SCHEDULER_MAX_WINDOW'
p5489
S'0'
p5490
sS'GET_TAIL'
p5491
S'GET_TAIL_OFF'
p5492
sS'VIDEO_TRACE_FILE'
p5493
g162
sS'FIXED_PROP_DELAY'
p5494
S'FIXED_PROP_DELAY_OFF'
p5495
sS'NUM_WDM_ONU'
p5496
g6
(g7
S'QString'
p5497
(V0
p5498
tp5499
tp5500
Rp5501
sS'TRAFFIC_TYPE'
p5502
S'TRAFFIC_POISSON'
p5503
sS'GRANT_TRACE'
p5504
S'GRANT_TRACE_OFF'
p5505
sS'STARVE_THRESH'
p5506
g6
(g7
S'QString'
p5507
(V64
p5508
tp5509
tp5510
Rp5511
sS'VIDEO_RANDOM_START'
p5512
S'VIDEO_RANDOM_START_OFF'
p5513
sS'AVAIL_COST_WEIGHT'
p5514
g6
(g7
S'QString'
p5515
(V1.0
p5516
tp5517
tp5518
Rp5519
sS'TIME_SHIFT'
p5520
S'0.0'
p5521
sS'WDM_TYPE'
p5522
S'WDM_FIXED'
p5523
sS'NUM_HEAVY_ONU'
p5524
g6
(g7
S'QString'
p5525
(V0
p5526
tp5527
tp5528
Rp5529
sS'NUM_SS_STREAMS'
p5530
g6
(g7
S'QString'
p5531
(V32
p5532
tp5533
tp5534
Rp5535
sS'NUM_ONU'
p5536
g6
(g7
S'QString'
p5537
(V32
p5538
tp5539
tp5540
Rp5541
sS'VIDEO_TRAFFIC'
p5542
S'VIDEO_TRAFFIC_OFF'
p5543
sS'FIXED_PROP_DELAY_VALUE'
p5544
g6
(g7
S'QString'
p5545
(V50e-6
p5546
tp5547
tp5548
Rp5549
sS'SIM_TRACE'
p5550
S'SIM_TRACE_OFF'
p5551
sS'SS_HURST_PARAM'
p5552
g6
(g7
S'QString'
p5553
(V0.75
p5554
tp5555
tp5556
Rp5557
sS'FRAME_RATE'
p5558
S'30.0'
p5559
sS'simID'
p5560
g6
(g7
S'QString'
p5561
(Vtest_0219
p5562
tp5563
tp5564
Rp5565
sssS'test_0218'
p5566
(dp5567
S'params'
p5568
(dp5569
S'SV_NUM_MA_VALUES'
p5570
g6
(g7
S'QString'
p5571
(V5
p5572
tp5573
tp5574
Rp5575
sS'NUM_PREFERRED_ONU'
p5576
g6
(g7
S'QString'
p5577
(V0
p5578
tp5579
tp5580
Rp5581
sS'PREDICTION_TYPE'
p5582
S'FFBI'
p5583
sS'SCHEDULER_SLOT_SIZE'
p5584
g6
(g7
S'QString'
p5585
(V64
p5586
tp5587
tp5588
Rp5589
sS'START_LAMBDA'
p5590
g6
(g7
S'QString'
p5591
(V1
p5592
tp5593
tp5594
Rp5595
sS'LOAD_INCR'
p5596
g6
(g7
S'QString'
p5597
(V0.1
p5598
tp5599
tp5600
Rp5601
sS'OLT_TYPE'
p5602
S'OLT_ONLINE_NASC'
p5603
sS'SIM_TIME'
p5604
g6
(g7
S'QString'
p5605
(V300
p5606
tp5607
tp5608
Rp5609
sS'SV_DROP_SENSITIVITY'
p5610
g6
(g7
S'QString'
p5611
(V1.0
p5612
tp5613
tp5614
Rp5615
sS'MAX_GRANT_SIZE'
p5616
g6
(g7
S'QString'
p5617
(V156876
p5618
tp5619
tp5620
Rp5621
sS'MAX_PROP_DELAY'
p5622
g6
(g7
S'QString'
p5623
(V50e-6
p5624
tp5625
tp5626
Rp5627
sS'SCALABLE_VIDEO_TRAFFIC'
p5628
S'SCALABLE_VIDEO_OFF'
p5629
sS'SV_MIN_BOUND'
p5630
g6
(g7
S'QString'
p5631
(V0.0005
p5632
tp5633
tp5634
Rp5635
sS'SV_MAX_BOUND'
p5636
g6
(g7
S'QString'
p5637
(V0.005
p5638
tp5639
tp5640
Rp5641
sS'FIXED_GRANT_SIZE'
p5642
g6
(g7
S'QString'
p5643
(V156876
p5644
tp5645
tp5646
Rp5647
sS'VIDEO_DBA_TYPE'
p5648
S'VIDEO_DBA_LIMITED_GATE'
p5649
sS'GUARD_TIME'
p5650
g6
(g7
S'QString'
p5651
(V1e-6
p5652
tp5653
tp5654
Rp5655
sS'TUNING_TIME'
p5656
g6
(g7
S'QString'
p5657
(V5e-3
p5658
tp5659
tp5660
Rp5661
sS'SIM_TRACE'
p5662
S'SIM_TRACE_OFF'
p5663
sS'LINK_SPEED'
p5664
g6
(g7
S'QString'
p5665
(V1e9
p5666
tp5667
tp5668
Rp5669
sS'END_LAMBDA'
p5670
g6
(g7
S'QString'
p5671
(V1
p5672
tp5673
tp5674
Rp5675
sS'VIDEO_TRAFFIC'
p5676
S'VIDEO_TRAFFIC_OFF'
p5677
sS'SCHEDULER_NUM_SLOT'
p5678
g6
(g7
S'QString'
p5679
(V180
p5680
tp5681
tp5682
Rp5683
sS'SV_DROP_LAYER_THRESHOLD'
p5684
g6
(g7
S'QString'
p5685
(V4
p5686
tp5687
tp5688
Rp5689
sS'NUM_RUNS'
p5690
g6
(g7
S'QString'
p5691
(V1
p5692
tp5693
tp5694
Rp5695
sS'VIDEO_PREDICTION'
p5696
S'VIDEO_PREDICTION_OFF'
p5697
sS'HEAVY_LOAD'
p5698
g6
(g7
S'QString'
p5699
(V2
p5700
tp5701
tp5702
Rp5703
sS'NUM_LH_WDM_ONU'
p5704
g6
(g7
S'QString'
p5705
(V0
p5706
tp5707
tp5708
Rp5709
sS'NUM_UH_WDM_ONU'
p5710
g6
(g7
S'QString'
p5711
(V0
p5712
tp5713
tp5714
Rp5715
sS'DBA_TYPE'
p5716
S'DBA_LIMITED_GATE'
p5717
sS'SCALABLE_VIDEO_DROPPING_ALGORITHM'
p5718
S'SCALABLE_VIDEO_DROPPING_OFF'
p5719
sS'SCHEDULER_MAX_WINDOW'
p5720
S'0'
p5721
sS'GET_TAIL'
p5722
S'GET_TAIL_OFF'
p5723
sS'VIDEO_TRACE_FILE'
p5724
g162
sS'FIXED_PROP_DELAY'
p5725
S'FIXED_PROP_DELAY_OFF'
p5726
sS'NUM_WDM_ONU'
p5727
g6
(g7
S'QString'
p5728
(V0
p5729
tp5730
tp5731
Rp5732
sS'TRAFFIC_TYPE'
p5733
S'TRAFFIC_POISSON'
p5734
sS'GRANT_TRACE'
p5735
S'GRANT_TRACE_OFF'
p5736
sS'STARVE_THRESH'
p5737
g6
(g7
S'QString'
p5738
(V64
p5739
tp5740
tp5741
Rp5742
sS'VIDEO_RANDOM_START'
p5743
S'VIDEO_RANDOM_START_OFF'
p5744
sS'AVAIL_COST_WEIGHT'
p5745
g6
(g7
S'QString'
p5746
(V1.0
p5747
tp5748
tp5749
Rp5750
sS'TIME_SHIFT'
p5751
S'0.0'
p5752
sS'WDM_TYPE'
p5753
S'WDM_FIXED'
p5754
sS'NUM_HEAVY_ONU'
p5755
g6
(g7
S'QString'
p5756
(V0
p5757
tp5758
tp5759
Rp5760
sS'NUM_SS_STREAMS'
p5761
g6
(g7
S'QString'
p5762
(V32
p5763
tp5764
tp5765
Rp5766
sS'NUM_ONU'
p5767
g6
(g7
S'QString'
p5768
(V32
p5769
tp5770
tp5771
Rp5772
sS'START_LOAD'
p5773
g6
(g7
S'QString'
p5774
(V0.1
p5775
tp5776
tp5777
Rp5778
sS'FIXED_PROP_DELAY_VALUE'
p5779
g6
(g7
S'QString'
p5780
(V50e-6
p5781
tp5782
tp5783
Rp5784
sS'END_LOAD'
p5785
g6
(g7
S'QString'
p5786
(V0.9
p5787
tp5788
tp5789
Rp5790
sS'SS_HURST_PARAM'
p5791
g6
(g7
S'QString'
p5792
(V0.75
p5793
tp5794
tp5795
Rp5796
sS'FRAME_RATE'
p5797
S'30.0'
p5798
sS'simID'
p5799
g6
(g7
S'QString'
p5800
(Vtest_0218
p5801
tp5802
tp5803
Rp5804
ssS'host'
p5805
S'localhost'
p5806
sS'pid'
p5807
I29596
ssS'test_0217'
p5808
(dp5809
S'pid'
p5810
I29455
sS'host'
p5811
S'localhost'
p5812
sS'params'
p5813
(dp5814
S'SV_NUM_MA_VALUES'
p5815
g6
(g7
S'QString'
p5816
(V5
p5817
tp5818
tp5819
Rp5820
sS'NUM_PREFERRED_ONU'
p5821
g6
(g7
S'QString'
p5822
(V0
p5823
tp5824
tp5825
Rp5826
sS'PREDICTION_TYPE'
p5827
S'FFBI'
p5828
sS'SCHEDULER_SLOT_SIZE'
p5829
g6
(g7
S'QString'
p5830
(V64
p5831
tp5832
tp5833
Rp5834
sS'START_LAMBDA'
p5835
g6
(g7
S'QString'
p5836
(V1
p5837
tp5838
tp5839
Rp5840
sS'START_LOAD'
p5841
g6
(g7
S'QString'
p5842
(V0.1
p5843
tp5844
tp5845
Rp5846
sS'LOAD_INCR'
p5847
g6
(g7
S'QString'
p5848
(V0.1
p5849
tp5850
tp5851
Rp5852
sS'OLT_TYPE'
p5853
S'OLT_ONLINE_NASC'
p5854
sS'SIM_TIME'
p5855
g6
(g7
S'QString'
p5856
(V300
p5857
tp5858
tp5859
Rp5860
sS'SV_DROP_SENSITIVITY'
p5861
g6
(g7
S'QString'
p5862
(V1.0
p5863
tp5864
tp5865
Rp5866
sS'MAX_GRANT_SIZE'
p5867
g6
(g7
S'QString'
p5868
(V156876
p5869
tp5870
tp5871
Rp5872
sS'MAX_PROP_DELAY'
p5873
g6
(g7
S'QString'
p5874
(V50e-6
p5875
tp5876
tp5877
Rp5878
sS'SCALABLE_VIDEO_TRAFFIC'
p5879
S'SCALABLE_VIDEO_OFF'
p5880
sS'SV_MIN_BOUND'
p5881
g6
(g7
S'QString'
p5882
(V0.0005
p5883
tp5884
tp5885
Rp5886
sS'SV_MAX_BOUND'
p5887
g6
(g7
S'QString'
p5888
(V0.005
p5889
tp5890
tp5891
Rp5892
sS'FIXED_GRANT_SIZE'
p5893
g6
(g7
S'QString'
p5894
(V156876
p5895
tp5896
tp5897
Rp5898
sS'VIDEO_DBA_TYPE'
p5899
S'VIDEO_DBA_LIMITED_GATE'
p5900
sS'GUARD_TIME'
p5901
g6
(g7
S'QString'
p5902
(V1e-6
p5903
tp5904
tp5905
Rp5906
sS'TUNING_TIME'
p5907
g6
(g7
S'QString'
p5908
(V5e-3
p5909
tp5910
tp5911
Rp5912
sS'END_LOAD'
p5913
g6
(g7
S'QString'
p5914
(V0.9
p5915
tp5916
tp5917
Rp5918
sS'LINK_SPEED'
p5919
g6
(g7
S'QString'
p5920
(V1e9
p5921
tp5922
tp5923
Rp5924
sS'END_LAMBDA'
p5925
g6
(g7
S'QString'
p5926
(V1
p5927
tp5928
tp5929
Rp5930
sS'SCHEDULER_NUM_SLOT'
p5931
g6
(g7
S'QString'
p5932
(V180
p5933
tp5934
tp5935
Rp5936
sS'SV_DROP_LAYER_THRESHOLD'
p5937
g6
(g7
S'QString'
p5938
(V4
p5939
tp5940
tp5941
Rp5942
sS'NUM_RUNS'
p5943
g6
(g7
S'QString'
p5944
(V1
p5945
tp5946
tp5947
Rp5948
sS'VIDEO_PREDICTION'
p5949
S'VIDEO_PREDICTION_OFF'
p5950
sS'HEAVY_LOAD'
p5951
g6
(g7
S'QString'
p5952
(V2
p5953
tp5954
tp5955
Rp5956
sS'NUM_LH_WDM_ONU'
p5957
g6
(g7
S'QString'
p5958
(V0
p5959
tp5960
tp5961
Rp5962
sS'NUM_UH_WDM_ONU'
p5963
g6
(g7
S'QString'
p5964
(V0
p5965
tp5966
tp5967
Rp5968
sS'DBA_TYPE'
p5969
S'DBA_LIMITED_GATE'
p5970
sS'SCALABLE_VIDEO_DROPPING_ALGORITHM'
p5971
S'SCALABLE_VIDEO_DROPPING_OFF'
p5972
sS'SCHEDULER_MAX_WINDOW'
p5973
S'0'
p5974
sS'GET_TAIL'
p5975
S'GET_TAIL_OFF'
p5976
sS'VIDEO_TRACE_FILE'
p5977
g162
sS'FIXED_PROP_DELAY'
p5978
S'FIXED_PROP_DELAY_OFF'
p5979
sS'NUM_WDM_ONU'
p5980
g6
(g7
S'QString'
p5981
(V0
p5982
tp5983
tp5984
Rp5985
sS'TRAFFIC_TYPE'
p5986
S'TRAFFIC_POISSON'
p5987
sS'GRANT_TRACE'
p5988
S'GRANT_TRACE_OFF'
p5989
sS'STARVE_THRESH'
p5990
g6
(g7
S'QString'
p5991
(V64
p5992
tp5993
tp5994
Rp5995
sS'VIDEO_RANDOM_START'
p5996
S'VIDEO_RANDOM_START_OFF'
p5997
sS'AVAIL_COST_WEIGHT'
p5998
g6
(g7
S'QString'
p5999
(V1.0
p6000
tp6001
tp6002
Rp6003
sS'TIME_SHIFT'
p6004
S'0.0'
p6005
sS'WDM_TYPE'
p6006
S'WDM_FIXED'
p6007
sS'NUM_HEAVY_ONU'
p6008
g6
(g7
S'QString'
p6009
(V0
p6010
tp6011
tp6012
Rp6013
sS'NUM_SS_STREAMS'
p6014
g6
(g7
S'QString'
p6015
(V32
p6016
tp6017
tp6018
Rp6019
sS'NUM_ONU'
p6020
g6
(g7
S'QString'
p6021
(V32
p6022
tp6023
tp6024
Rp6025
sS'VIDEO_TRAFFIC'
p6026
S'VIDEO_TRAFFIC_OFF'
p6027
sS'FIXED_PROP_DELAY_VALUE'
p6028
g6
(g7
S'QString'
p6029
(V50e-6
p6030
tp6031
tp6032
Rp6033
sS'SIM_TRACE'
p6034
S'SIM_TRACE_OFF'
p6035
sS'SS_HURST_PARAM'
p6036
g6
(g7
S'QString'
p6037
(V0.75
p6038
tp6039
tp6040
Rp6041
sS'FRAME_RATE'
p6042
S'30.0'
p6043
sS'simID'
p6044
g6
(g7
S'QString'
p6045
(Vtest_0217
p6046
tp6047
tp6048
Rp6049
sssS'test_0216'
p6050
(dp6051
S'params'
p6052
(dp6053
S'SV_NUM_MA_VALUES'
p6054
g6
(g7
S'QString'
p6055
(V5
p6056
tp6057
tp6058
Rp6059
sS'NUM_PREFERRED_ONU'
p6060
g6
(g7
S'QString'
p6061
(V0
p6062
tp6063
tp6064
Rp6065
sS'PREDICTION_TYPE'
p6066
S'FFBI'
p6067
sS'SCHEDULER_SLOT_SIZE'
p6068
g6
(g7
S'QString'
p6069
(V64
p6070
tp6071
tp6072
Rp6073
sS'START_LAMBDA'
p6074
g6
(g7
S'QString'
p6075
(V1
p6076
tp6077
tp6078
Rp6079
sS'LOAD_INCR'
p6080
g6
(g7
S'QString'
p6081
(V0.1
p6082
tp6083
tp6084
Rp6085
sS'OLT_TYPE'
p6086
S'OLT_ONLINE_NASC'
p6087
sS'SIM_TIME'
p6088
g6
(g7
S'QString'
p6089
(V300
p6090
tp6091
tp6092
Rp6093
sS'SV_DROP_SENSITIVITY'
p6094
g6
(g7
S'QString'
p6095
(V1.0
p6096
tp6097
tp6098
Rp6099
sS'MAX_GRANT_SIZE'
p6100
g6
(g7
S'QString'
p6101
(V156876
p6102
tp6103
tp6104
Rp6105
sS'MAX_PROP_DELAY'
p6106
g6
(g7
S'QString'
p6107
(V50e-6
p6108
tp6109
tp6110
Rp6111
sS'SCALABLE_VIDEO_TRAFFIC'
p6112
S'SCALABLE_VIDEO_OFF'
p6113
sS'SV_MIN_BOUND'
p6114
g6
(g7
S'QString'
p6115
(V0.0005
p6116
tp6117
tp6118
Rp6119
sS'SV_MAX_BOUND'
p6120
g6
(g7
S'QString'
p6121
(V0.005
p6122
tp6123
tp6124
Rp6125
sS'FIXED_GRANT_SIZE'
p6126
g6
(g7
S'QString'
p6127
(V156876
p6128
tp6129
tp6130
Rp6131
sS'VIDEO_DBA_TYPE'
p6132
S'VIDEO_DBA_LIMITED_GATE'
p6133
sS'GUARD_TIME'
p6134
g6
(g7
S'QString'
p6135
(V1e-6
p6136
tp6137
tp6138
Rp6139
sS'TUNING_TIME'
p6140
g6
(g7
S'QString'
p6141
(V5e-3
p6142
tp6143
tp6144
Rp6145
sS'SIM_TRACE'
p6146
S'SIM_TRACE_OFF'
p6147
sS'LINK_SPEED'
p6148
g6
(g7
S'QString'
p6149
(V1e9
p6150
tp6151
tp6152
Rp6153
sS'END_LAMBDA'
p6154
g6
(g7
S'QString'
p6155
(V1
p6156
tp6157
tp6158
Rp6159
sS'VIDEO_TRAFFIC'
p6160
S'VIDEO_TRAFFIC_OFF'
p6161
sS'SCHEDULER_NUM_SLOT'
p6162
g6
(g7
S'QString'
p6163
(V180
p6164
tp6165
tp6166
Rp6167
sS'SV_DROP_LAYER_THRESHOLD'
p6168
g6
(g7
S'QString'
p6169
(V4
p6170
tp6171
tp6172
Rp6173
sS'NUM_RUNS'
p6174
g6
(g7
S'QString'
p6175
(V1
p6176
tp6177
tp6178
Rp6179
sS'VIDEO_PREDICTION'
p6180
S'VIDEO_PREDICTION_OFF'
p6181
sS'HEAVY_LOAD'
p6182
g6
(g7
S'QString'
p6183
(V2
p6184
tp6185
tp6186
Rp6187
sS'NUM_LH_WDM_ONU'
p6188
g6
(g7
S'QString'
p6189
(V0
p6190
tp6191
tp6192
Rp6193
sS'NUM_UH_WDM_ONU'
p6194
g6
(g7
S'QString'
p6195
(V0
p6196
tp6197
tp6198
Rp6199
sS'DBA_TYPE'
p6200
S'DBA_LIMITED_GATE'
p6201
sS'SCALABLE_VIDEO_DROPPING_ALGORITHM'
p6202
S'SCALABLE_VIDEO_DROPPING_OFF'
p6203
sS'SCHEDULER_MAX_WINDOW'
p6204
S'0'
p6205
sS'GET_TAIL'
p6206
S'GET_TAIL_OFF'
p6207
sS'VIDEO_TRACE_FILE'
p6208
g162
sS'FIXED_PROP_DELAY'
p6209
S'FIXED_PROP_DELAY_OFF'
p6210
sS'NUM_WDM_ONU'
p6211
g6
(g7
S'QString'
p6212
(V0
p6213
tp6214
tp6215
Rp6216
sS'TRAFFIC_TYPE'
p6217
S'TRAFFIC_POISSON'
p6218
sS'GRANT_TRACE'
p6219
S'GRANT_TRACE_OFF'
p6220
sS'STARVE_THRESH'
p6221
g6
(g7
S'QString'
p6222
(V64
p6223
tp6224
tp6225
Rp6226
sS'VIDEO_RANDOM_START'
p6227
S'VIDEO_RANDOM_START_OFF'
p6228
sS'AVAIL_COST_WEIGHT'
p6229
g6
(g7
S'QString'
p6230
(V1.0
p6231
tp6232
tp6233
Rp6234
sS'TIME_SHIFT'
p6235
S'0.0'
p6236
sS'WDM_TYPE'
p6237
S'WDM_FIXED'
p6238
sS'NUM_HEAVY_ONU'
p6239
g6
(g7
S'QString'
p6240
(V0
p6241
tp6242
tp6243
Rp6244
sS'NUM_SS_STREAMS'
p6245
g6
(g7
S'QString'
p6246
(V32
p6247
tp6248
tp6249
Rp6250
sS'NUM_ONU'
p6251
g6
(g7
S'QString'
p6252
(V32
p6253
tp6254
tp6255
Rp6256
sS'START_LOAD'
p6257
g6
(g7
S'QString'
p6258
(V0.1
p6259
tp6260
tp6261
Rp6262
sS'FIXED_PROP_DELAY_VALUE'
p6263
g6
(g7
S'QString'
p6264
(V50e-6
p6265
tp6266
tp6267
Rp6268
sS'END_LOAD'
p6269
g6
(g7
S'QString'
p6270
(V0.9
p6271
tp6272
tp6273
Rp6274
sS'SS_HURST_PARAM'
p6275
g6
(g7
S'QString'
p6276
(V0.75
p6277
tp6278
tp6279
Rp6280
sS'FRAME_RATE'
p6281
S'30.0'
p6282
sS'simID'
p6283
g6
(g7
S'QString'
p6284
(Vtest_0216
p6285
tp6286
tp6287
Rp6288
ssS'host'
p6289
S'localhost'
p6290
sS'pid'
p6291
I27595
ssS'test_0233'
p6292
(dp6293
g3321
(dp6294
g3323
g6
(g7
S'QString'
p6295
(V5
p6296
tp6297
tp6298
Rp6299
sg3329
g6
(g7
S'QString'
p6300
(V0
p6301
tp6302
tp6303
Rp6304
sg3335
g3336
sg3337
g6
(g7
S'QString'
p6305
(V64
p6306
tp6307
tp6308
Rp6309
sg3343
g6
(g7
S'QString'
p6310
(V1
p6311
tp6312
tp6313
Rp6314
sg3349
g6
(g7
S'QString'
p6315
(V0.1
p6316
tp6317
tp6318
Rp6319
sg3355
g6
(g7
S'QString'
p6320
(V0.1
p6321
tp6322
tp6323
Rp6324
sg3361
S'OLT_LFJ_SPT'
p6325
sg3363
g6
(g7
S'QString'
p6326
(V300
p6327
tp6328
tp6329
Rp6330
sg3369
g3370
sg3371
g3372
sg3373
g6
(g7
S'QString'
p6331
(V50e-6
p6332
tp6333
tp6334
Rp6335
sg3379
g6
(g7
S'QString'
p6336
(V156876
p6337
tp6338
tp6339
Rp6340
sg3385
g6
(g7
S'QString'
p6341
(V0.0005
p6342
tp6343
tp6344
Rp6345
sg3391
g6
(g7
S'QString'
p6346
(V0.005
p6347
tp6348
tp6349
Rp6350
sg3397
g6
(g7
S'QString'
p6351
(V156876
p6352
tp6353
tp6354
Rp6355
sg3403
g3404
sg3405
g6
(g7
S'QString'
p6356
(V1e-6
p6357
tp6358
tp6359
Rp6360
sg3411
g6
(g7
S'QString'
p6361
(V5e-3
p6362
tp6363
tp6364
Rp6365
sg3417
g6
(g7
S'QString'
p6366
(V0.9
p6367
tp6368
tp6369
Rp6370
sg3423
g6
(g7
S'QString'
p6371
(V1e9
p6372
tp6373
tp6374
Rp6375
sg3429
g6
(g7
S'QString'
p6376
(V1
p6377
tp6378
tp6379
Rp6380
sg3435
g6
(g7
S'QString'
p6381
(V180
p6382
tp6383
tp6384
Rp6385
sg3441
g6
(g7
S'QString'
p6386
(V4
p6387
tp6388
tp6389
Rp6390
sg3447
g6
(g7
S'QString'
p6391
(V1
p6392
tp6393
tp6394
Rp6395
sg3453
g3454
sg3455
g6
(g7
S'QString'
p6396
(V2
p6397
tp6398
tp6399
Rp6400
sg3461
g6
(g7
S'QString'
p6401
(V0
p6402
tp6403
tp6404
Rp6405
sg3467
g6
(g7
S'QString'
p6406
(V0
p6407
tp6408
tp6409
Rp6410
sg3473
g3474
sg3475
g3476
sg3477
g3478
sg3479
g162
sg3480
g3481
sg3482
g6
(g7
S'QString'
p6411
(V0
p6412
tp6413
tp6414
Rp6415
sg3488
g3489
sg3490
g3491
sg3492
g6
(g7
S'QString'
p6416
(V64
p6417
tp6418
tp6419
Rp6420
sg3498
g3499
sg3500
g6
(g7
S'QString'
p6421
(V1.0
p6422
tp6423
tp6424
Rp6425
sg3506
g3507
sg3508
g3509
sg3510
g6
(g7
S'QString'
p6426
(V1.0
p6427
tp6428
tp6429
Rp6430
sg3516
g6
(g7
S'QString'
p6431
(V0
p6432
tp6433
tp6434
Rp6435
sg3522
g6
(g7
S'QString'
p6436
(V32
p6437
tp6438
tp6439
Rp6440
sg3528
g6
(g7
S'QString'
p6441
(V32
p6442
tp6443
tp6444
Rp6445
sg3534
g3535
sg3536
g6
(g7
S'QString'
p6446
(V50e-6
p6447
tp6448
tp6449
Rp6450
sg3542
g3543
sg3544
g6
(g7
S'QString'
p6451
(V0.75
p6452
tp6453
tp6454
Rp6455
sg3550
g3551
sg3552
g6
(g7
S'QString'
p6456
(Vtest_0233
p6457
tp6458
tp6459
Rp6460
ssg3558
g3559
sg3560
I31803
ssS'test_0232'
p6461
(dp6462
g3321
(dp6463
g3323
g6
(g7
S'QString'
p6464
(V5
p6465
tp6466
tp6467
Rp6468
sg3329
g6
(g7
S'QString'
p6469
(V0
p6470
tp6471
tp6472
Rp6473
sg3335
g3336
sg3337
g6
(g7
S'QString'
p6474
(V64
p6475
tp6476
tp6477
Rp6478
sg3343
g6
(g7
S'QString'
p6479
(V1
p6480
tp6481
tp6482
Rp6483
sg3355
g6
(g7
S'QString'
p6484
(V0.1
p6485
tp6486
tp6487
Rp6488
sg3361
S'OLT_LFJ_LPT'
p6489
sg3363
g6
(g7
S'QString'
p6490
(V300
p6491
tp6492
tp6493
Rp6494
sg3510
g6
(g7
S'QString'
p6495
(V1.0
p6496
tp6497
tp6498
Rp6499
sg3379
g6
(g7
S'QString'
p6500
(V156876
p6501
tp6502
tp6503
Rp6504
sg3373
g6
(g7
S'QString'
p6505
(V50e-6
p6506
tp6507
tp6508
Rp6509
sg3371
g3372
sg3385
g6
(g7
S'QString'
p6510
(V0.0005
p6511
tp6512
tp6513
Rp6514
sg3391
g6
(g7
S'QString'
p6515
(V0.005
p6516
tp6517
tp6518
Rp6519
sg3397
g6
(g7
S'QString'
p6520
(V156876
p6521
tp6522
tp6523
Rp6524
sg3403
g3404
sg3405
g6
(g7
S'QString'
p6525
(V1e-6
p6526
tp6527
tp6528
Rp6529
sg3411
g6
(g7
S'QString'
p6530
(V5e-3
p6531
tp6532
tp6533
Rp6534
sg3542
g3543
sg3423
g6
(g7
S'QString'
p6535
(V1e9
p6536
tp6537
tp6538
Rp6539
sg3429
g6
(g7
S'QString'
p6540
(V1
p6541
tp6542
tp6543
Rp6544
sg3534
g3535
sg3435
g6
(g7
S'QString'
p6545
(V180
p6546
tp6547
tp6548
Rp6549
sg3441
g6
(g7
S'QString'
p6550
(V4
p6551
tp6552
tp6553
Rp6554
sg3447
g6
(g7
S'QString'
p6555
(V1
p6556
tp6557
tp6558
Rp6559
sg3453
g3454
sg3455
g6
(g7
S'QString'
p6560
(V2
p6561
tp6562
tp6563
Rp6564
sg3461
g6
(g7
S'QString'
p6565
(V0
p6566
tp6567
tp6568
Rp6569
sg3467
g6
(g7
S'QString'
p6570
(V0
p6571
tp6572
tp6573
Rp6574
sg3369
g3370
sg3473
g3474
sg3475
g3476
sg3477
g3478
sg3479
g162
sg3480
g3481
sg3482
g6
(g7
S'QString'
p6575
(V0
p6576
tp6577
tp6578
Rp6579
sg3488
g3489
sg3490
g3491
sg3492
g6
(g7
S'QString'
p6580
(V64
p6581
tp6582
tp6583
Rp6584
sg3498
g3499
sg3500
g6
(g7
S'QString'
p6585
(V1.0
p6586
tp6587
tp6588
Rp6589
sg3506
g3507
sg3508
g3509
sg3516
g6
(g7
S'QString'
p6590
(V0
p6591
tp6592
tp6593
Rp6594
sg3522
g6
(g7
S'QString'
p6595
(V32
p6596
tp6597
tp6598
Rp6599
sg3528
g6
(g7
S'QString'
p6600
(V32
p6601
tp6602
tp6603
Rp6604
sg3349
g6
(g7
S'QString'
p6605
(V0.1
p6606
tp6607
tp6608
Rp6609
sg3536
g6
(g7
S'QString'
p6610
(V50e-6
p6611
tp6612
tp6613
Rp6614
sg3417
g6
(g7
S'QString'
p6615
(V0.9
p6616
tp6617
tp6618
Rp6619
sg3544
g6
(g7
S'QString'
p6620
(V0.75
p6621
tp6622
tp6623
Rp6624
sg3550
g3551
sg3552
g6
(g7
S'QString'
p6625
(Vtest_0232
p6626
tp6627
tp6628
Rp6629
ssg3558
g3559
sg3560
I31764
ssS'test_0213'
p6630
(dp6631
S'pid'
p6632
I27212
sS'host'
p6633
S'localhost'
p6634
sS'params'
p6635
(dp6636
S'SV_NUM_MA_VALUES'
p6637
g6
(g7
S'QString'
p6638
(V5
p6639
tp6640
tp6641
Rp6642
sS'NUM_PREFERRED_ONU'
p6643
g6
(g7
S'QString'
p6644
(V0
p6645
tp6646
tp6647
Rp6648
sS'PREDICTION_TYPE'
p6649
S'FFBI'
p6650
sS'SCHEDULER_SLOT_SIZE'
p6651
g6
(g7
S'QString'
p6652
(V64
p6653
tp6654
tp6655
Rp6656
sS'START_LAMBDA'
p6657
g6
(g7
S'QString'
p6658
(V1
p6659
tp6660
tp6661
Rp6662
sS'START_LOAD'
p6663
g6
(g7
S'QString'
p6664
(V0.1
p6665
tp6666
tp6667
Rp6668
sS'LOAD_INCR'
p6669
g6
(g7
S'QString'
p6670
(V0.1
p6671
tp6672
tp6673
Rp6674
sS'OLT_TYPE'
p6675
S'OLT_ONLINE_NASC'
p6676
sS'SIM_TIME'
p6677
g6
(g7
S'QString'
p6678
(V300
p6679
tp6680
tp6681
Rp6682
sS'SV_DROP_SENSITIVITY'
p6683
g6
(g7
S'QString'
p6684
(V1.0
p6685
tp6686
tp6687
Rp6688
sS'MAX_GRANT_SIZE'
p6689
g6
(g7
S'QString'
p6690
(V156876
p6691
tp6692
tp6693
Rp6694
sS'MAX_PROP_DELAY'
p6695
g6
(g7
S'QString'
p6696
(V50e-6
p6697
tp6698
tp6699
Rp6700
sS'SCALABLE_VIDEO_TRAFFIC'
p6701
S'SCALABLE_VIDEO_OFF'
p6702
sS'SV_MIN_BOUND'
p6703
g6
(g7
S'QString'
p6704
(V0.0005
p6705
tp6706
tp6707
Rp6708
sS'SV_MAX_BOUND'
p6709
g6
(g7
S'QString'
p6710
(V0.005
p6711
tp6712
tp6713
Rp6714
sS'FIXED_GRANT_SIZE'
p6715
g6
(g7
S'QString'
p6716
(V156876
p6717
tp6718
tp6719
Rp6720
sS'VIDEO_DBA_TYPE'
p6721
S'VIDEO_DBA_LIMITED_GATE'
p6722
sS'GUARD_TIME'
p6723
g6
(g7
S'QString'
p6724
(V1e-6
p6725
tp6726
tp6727
Rp6728
sS'TUNING_TIME'
p6729
g6
(g7
S'QString'
p6730
(V5e-3
p6731
tp6732
tp6733
Rp6734
sS'END_LOAD'
p6735
g6
(g7
S'QString'
p6736
(V0.9
p6737
tp6738
tp6739
Rp6740
sS'LINK_SPEED'
p6741
g6
(g7
S'QString'
p6742
(V1e9
p6743
tp6744
tp6745
Rp6746
sS'END_LAMBDA'
p6747
g6
(g7
S'QString'
p6748
(V1
p6749
tp6750
tp6751
Rp6752
sS'SCHEDULER_NUM_SLOT'
p6753
g6
(g7
S'QString'
p6754
(V180
p6755
tp6756
tp6757
Rp6758
sS'SV_DROP_LAYER_THRESHOLD'
p6759
g6
(g7
S'QString'
p6760
(V4
p6761
tp6762
tp6763
Rp6764
sS'NUM_RUNS'
p6765
g6
(g7
S'QString'
p6766
(V1
p6767
tp6768
tp6769
Rp6770
sS'VIDEO_PREDICTION'
p6771
S'VIDEO_PREDICTION_OFF'
p6772
sS'HEAVY_LOAD'
p6773
g6
(g7
S'QString'
p6774
(V2
p6775
tp6776
tp6777
Rp6778
sS'NUM_LH_WDM_ONU'
p6779
g6
(g7
S'QString'
p6780
(V0
p6781
tp6782
tp6783
Rp6784
sS'NUM_UH_WDM_ONU'
p6785
g6
(g7
S'QString'
p6786
(V0
p6787
tp6788
tp6789
Rp6790
sS'DBA_TYPE'
p6791
S'DBA_LIMITED_GATE'
p6792
sS'SCALABLE_VIDEO_DROPPING_ALGORITHM'
p6793
S'SCALABLE_VIDEO_DROPPING_OFF'
p6794
sS'SCHEDULER_MAX_WINDOW'
p6795
S'0'
p6796
sS'GET_TAIL'
p6797
S'GET_TAIL_OFF'
p6798
sS'VIDEO_TRACE_FILE'
p6799
g162
sS'FIXED_PROP_DELAY'
p6800
S'FIXED_PROP_DELAY_OFF'
p6801
sS'NUM_WDM_ONU'
p6802
g6
(g7
S'QString'
p6803
(V0
p6804
tp6805
tp6806
Rp6807
sS'TRAFFIC_TYPE'
p6808
S'TRAFFIC_POISSON'
p6809
sS'GRANT_TRACE'
p6810
S'GRANT_TRACE_OFF'
p6811
sS'STARVE_THRESH'
p6812
g6
(g7
S'QString'
p6813
(V64
p6814
tp6815
tp6816
Rp6817
sS'VIDEO_RANDOM_START'
p6818
S'VIDEO_RANDOM_START_OFF'
p6819
sS'AVAIL_COST_WEIGHT'
p6820
g6
(g7
S'QString'
p6821
(V1.0
p6822
tp6823
tp6824
Rp6825
sS'TIME_SHIFT'
p6826
S'0.0'
p6827
sS'WDM_TYPE'
p6828
S'WDM_FIXED'
p6829
sS'NUM_HEAVY_ONU'
p6830
g6
(g7
S'QString'
p6831
(V0
p6832
tp6833
tp6834
Rp6835
sS'NUM_SS_STREAMS'
p6836
g6
(g7
S'QString'
p6837
(V32
p6838
tp6839
tp6840
Rp6841
sS'NUM_ONU'
p6842
g6
(g7
S'QString'
p6843
(V32
p6844
tp6845
tp6846
Rp6847
sS'VIDEO_TRAFFIC'
p6848
S'VIDEO_TRAFFIC_OFF'
p6849
sS'FIXED_PROP_DELAY_VALUE'
p6850
g6
(g7
S'QString'
p6851
(V50e-6
p6852
tp6853
tp6854
Rp6855
sS'SIM_TRACE'
p6856
S'SIM_TRACE_OFF'
p6857
sS'SS_HURST_PARAM'
p6858
g6
(g7
S'QString'
p6859
(V0.75
p6860
tp6861
tp6862
Rp6863
sS'FRAME_RATE'
p6864
S'30.0'
p6865
sS'simID'
p6866
g6
(g7
S'QString'
p6867
(Vtest_0213
p6868
tp6869
tp6870
Rp6871
sssS'test_0212'
p6872
(dp6873
S'params'
p6874
(dp6875
S'SV_NUM_MA_VALUES'
p6876
g6
(g7
S'QString'
p6877
(V5
p6878
tp6879
tp6880
Rp6881
sS'NUM_PREFERRED_ONU'
p6882
g6
(g7
S'QString'
p6883
(V0
p6884
tp6885
tp6886
Rp6887
sS'PREDICTION_TYPE'
p6888
S'FFBI'
p6889
sS'SCHEDULER_SLOT_SIZE'
p6890
g6
(g7
S'QString'
p6891
(V64
p6892
tp6893
tp6894
Rp6895
sS'START_LAMBDA'
p6896
g6
(g7
S'QString'
p6897
(V1
p6898
tp6899
tp6900
Rp6901
sS'LOAD_INCR'
p6902
g6
(g7
S'QString'
p6903
(V0.1
p6904
tp6905
tp6906
Rp6907
sS'OLT_TYPE'
p6908
S'OLT_ONLINE_NASC'
p6909
sS'SIM_TIME'
p6910
g6
(g7
S'QString'
p6911
(V300
p6912
tp6913
tp6914
Rp6915
sS'SV_DROP_SENSITIVITY'
p6916
g6
(g7
S'QString'
p6917
(V1.0
p6918
tp6919
tp6920
Rp6921
sS'MAX_GRANT_SIZE'
p6922
g6
(g7
S'QString'
p6923
(V156876
p6924
tp6925
tp6926
Rp6927
sS'MAX_PROP_DELAY'
p6928
g6
(g7
S'QString'
p6929
(V50e-6
p6930
tp6931
tp6932
Rp6933
sS'SCALABLE_VIDEO_TRAFFIC'
p6934
S'SCALABLE_VIDEO_OFF'
p6935
sS'SV_MIN_BOUND'
p6936
g6
(g7
S'QString'
p6937
(V0.0005
p6938
tp6939
tp6940
Rp6941
sS'SV_MAX_BOUND'
p6942
g6
(g7
S'QString'
p6943
(V0.005
p6944
tp6945
tp6946
Rp6947
sS'FIXED_GRANT_SIZE'
p6948
g6
(g7
S'QString'
p6949
(V156876
p6950
tp6951
tp6952
Rp6953
sS'VIDEO_DBA_TYPE'
p6954
S'VIDEO_DBA_LIMITED_GATE'
p6955
sS'GUARD_TIME'
p6956
g6
(g7
S'QString'
p6957
(V1e-6
p6958
tp6959
tp6960
Rp6961
sS'TUNING_TIME'
p6962
g6
(g7
S'QString'
p6963
(V5e-3
p6964
tp6965
tp6966
Rp6967
sS'SIM_TRACE'
p6968
S'SIM_TRACE_OFF'
p6969
sS'LINK_SPEED'
p6970
g6
(g7
S'QString'
p6971
(V1e9
p6972
tp6973
tp6974
Rp6975
sS'END_LAMBDA'
p6976
g6
(g7
S'QString'
p6977
(V1
p6978
tp6979
tp6980
Rp6981
sS'VIDEO_TRAFFIC'
p6982
S'VIDEO_TRAFFIC_OFF'
p6983
sS'SCHEDULER_NUM_SLOT'
p6984
g6
(g7
S'QString'
p6985
(V180
p6986
tp6987
tp6988
Rp6989
sS'SV_DROP_LAYER_THRESHOLD'
p6990
g6
(g7
S'QString'
p6991
(V4
p6992
tp6993
tp6994
Rp6995
sS'NUM_RUNS'
p6996
g6
(g7
S'QString'
p6997
(V1
p6998
tp6999
tp7000
Rp7001
sS'VIDEO_PREDICTION'
p7002
S'VIDEO_PREDICTION_OFF'
p7003
sS'HEAVY_LOAD'
p7004
g6
(g7
S'QString'
p7005
(V2
p7006
tp7007
tp7008
Rp7009
sS'NUM_LH_WDM_ONU'
p7010
g6
(g7
S'QString'
p7011
(V0
p7012
tp7013
tp7014
Rp7015
sS'NUM_UH_WDM_ONU'
p7016
g6
(g7
S'QString'
p7017
(V0
p7018
tp7019
tp7020
Rp7021
sS'DBA_TYPE'
p7022
S'DBA_LIMITED_GATE'
p7023
sS'SCALABLE_VIDEO_DROPPING_ALGORITHM'
p7024
S'SCALABLE_VIDEO_DROPPING_OFF'
p7025
sS'SCHEDULER_MAX_WINDOW'
p7026
S'0'
p7027
sS'GET_TAIL'
p7028
S'GET_TAIL_OFF'
p7029
sS'VIDEO_TRACE_FILE'
p7030
g162
sS'FIXED_PROP_DELAY'
p7031
S'FIXED_PROP_DELAY_OFF'
p7032
sS'NUM_WDM_ONU'
p7033
g6
(g7
S'QString'
p7034
(V0
p7035
tp7036
tp7037
Rp7038
sS'TRAFFIC_TYPE'
p7039
S'TRAFFIC_POISSON'
p7040
sS'GRANT_TRACE'
p7041
S'GRANT_TRACE_OFF'
p7042
sS'STARVE_THRESH'
p7043
g6
(g7
S'QString'
p7044
(V64
p7045
tp7046
tp7047
Rp7048
sS'VIDEO_RANDOM_START'
p7049
S'VIDEO_RANDOM_START_OFF'
p7050
sS'AVAIL_COST_WEIGHT'
p7051
g6
(g7
S'QString'
p7052
(V1.0
p7053
tp7054
tp7055
Rp7056
sS'TIME_SHIFT'
p7057
S'0.0'
p7058
sS'WDM_TYPE'
p7059
S'WDM_FIXED'
p7060
sS'NUM_HEAVY_ONU'
p7061
g6
(g7
S'QString'
p7062
(V0
p7063
tp7064
tp7065
Rp7066
sS'NUM_SS_STREAMS'
p7067
g6
(g7
S'QString'
p7068
(V32
p7069
tp7070
tp7071
Rp7072
sS'NUM_ONU'
p7073
g6
(g7
S'QString'
p7074
(V32
p7075
tp7076
tp7077
Rp7078
sS'START_LOAD'
p7079
g6
(g7
S'QString'
p7080
(V0.1
p7081
tp7082
tp7083
Rp7084
sS'FIXED_PROP_DELAY_VALUE'
p7085
g6
(g7
S'QString'
p7086
(V50e-6
p7087
tp7088
tp7089
Rp7090
sS'END_LOAD'
p7091
g6
(g7
S'QString'
p7092
(V0.9
p7093
tp7094
tp7095
Rp7096
sS'SS_HURST_PARAM'
p7097
g6
(g7
S'QString'
p7098
(V0.75
p7099
tp7100
tp7101
Rp7102
sS'FRAME_RATE'
p7103
S'30.0'
p7104
sS'simID'
p7105
g6
(g7
S'QString'
p7106
(Vtest_0212
p7107
tp7108
tp7109
Rp7110
ssS'host'
p7111
S'localhost'
p7112
sS'pid'
p7113
I27022
ssS'test_0211'
p7114
(dp7115
S'pid'
p7116
I26851
sS'host'
p7117
S'localhost'
p7118
sS'params'
p7119
(dp7120
S'SV_NUM_MA_VALUES'
p7121
g6
(g7
S'QString'
p7122
(V5
p7123
tp7124
tp7125
Rp7126
sS'NUM_PREFERRED_ONU'
p7127
g6
(g7
S'QString'
p7128
(V0
p7129
tp7130
tp7131
Rp7132
sS'PREDICTION_TYPE'
p7133
S'FFBI'
p7134
sS'SCHEDULER_SLOT_SIZE'
p7135
g6
(g7
S'QString'
p7136
(V64
p7137
tp7138
tp7139
Rp7140
sS'START_LAMBDA'
p7141
g6
(g7
S'QString'
p7142
(V1
p7143
tp7144
tp7145
Rp7146
sS'START_LOAD'
p7147
g6
(g7
S'QString'
p7148
(V0.1
p7149
tp7150
tp7151
Rp7152
sS'LOAD_INCR'
p7153
g6
(g7
S'QString'
p7154
(V0.1
p7155
tp7156
tp7157
Rp7158
sS'OLT_TYPE'
p7159
S'OLT_ONLINE_NASC'
p7160
sS'SIM_TIME'
p7161
g6
(g7
S'QString'
p7162
(V300
p7163
tp7164
tp7165
Rp7166
sS'SV_DROP_SENSITIVITY'
p7167
g6
(g7
S'QString'
p7168
(V1.0
p7169
tp7170
tp7171
Rp7172
sS'MAX_GRANT_SIZE'
p7173
g6
(g7
S'QString'
p7174
(V156876
p7175
tp7176
tp7177
Rp7178
sS'MAX_PROP_DELAY'
p7179
g6
(g7
S'QString'
p7180
(V50e-6
p7181
tp7182
tp7183
Rp7184
sS'SCALABLE_VIDEO_TRAFFIC'
p7185
S'SCALABLE_VIDEO_OFF'
p7186
sS'SV_MIN_BOUND'
p7187
g6
(g7
S'QString'
p7188
(V0.0005
p7189
tp7190
tp7191
Rp7192
sS'SV_MAX_BOUND'
p7193
g6
(g7
S'QString'
p7194
(V0.005
p7195
tp7196
tp7197
Rp7198
sS'FIXED_GRANT_SIZE'
p7199
g6
(g7
S'QString'
p7200
(V156876
p7201
tp7202
tp7203
Rp7204
sS'VIDEO_DBA_TYPE'
p7205
S'VIDEO_DBA_LIMITED_GATE'
p7206
sS'GUARD_TIME'
p7207
g6
(g7
S'QString'
p7208
(V1e-6
p7209
tp7210
tp7211
Rp7212
sS'TUNING_TIME'
p7213
g6
(g7
S'QString'
p7214
(V5e-3
p7215
tp7216
tp7217
Rp7218
sS'END_LOAD'
p7219
g6
(g7
S'QString'
p7220
(V0.9
p7221
tp7222
tp7223
Rp7224
sS'LINK_SPEED'
p7225
g6
(g7
S'QString'
p7226
(V1e9
p7227
tp7228
tp7229
Rp7230
sS'END_LAMBDA'
p7231
g6
(g7
S'QString'
p7232
(V1
p7233
tp7234
tp7235
Rp7236
sS'SCHEDULER_NUM_SLOT'
p7237
g6
(g7
S'QString'
p7238
(V180
p7239
tp7240
tp7241
Rp7242
sS'SV_DROP_LAYER_THRESHOLD'
p7243
g6
(g7
S'QString'
p7244
(V4
p7245
tp7246
tp7247
Rp7248
sS'NUM_RUNS'
p7249
g6
(g7
S'QString'
p7250
(V1
p7251
tp7252
tp7253
Rp7254
sS'VIDEO_PREDICTION'
p7255
S'VIDEO_PREDICTION_OFF'
p7256
sS'HEAVY_LOAD'
p7257
g6
(g7
S'QString'
p7258
(V2
p7259
tp7260
tp7261
Rp7262
sS'NUM_LH_WDM_ONU'
p7263
g6
(g7
S'QString'
p7264
(V0
p7265
tp7266
tp7267
Rp7268
sS'NUM_UH_WDM_ONU'
p7269
g6
(g7
S'QString'
p7270
(V0
p7271
tp7272
tp7273
Rp7274
sS'DBA_TYPE'
p7275
S'DBA_LIMITED_GATE'
p7276
sS'SCALABLE_VIDEO_DROPPING_ALGORITHM'
p7277
S'SCALABLE_VIDEO_DROPPING_OFF'
p7278
sS'SCHEDULER_MAX_WINDOW'
p7279
S'0'
p7280
sS'GET_TAIL'
p7281
S'GET_TAIL_OFF'
p7282
sS'VIDEO_TRACE_FILE'
p7283
g162
sS'FIXED_PROP_DELAY'
p7284
S'FIXED_PROP_DELAY_OFF'
p7285
sS'NUM_WDM_ONU'
p7286
g6
(g7
S'QString'
p7287
(V0
p7288
tp7289
tp7290
Rp7291
sS'TRAFFIC_TYPE'
p7292
S'TRAFFIC_POISSON'
p7293
sS'GRANT_TRACE'
p7294
S'GRANT_TRACE_OFF'
p7295
sS'STARVE_THRESH'
p7296
g6
(g7
S'QString'
p7297
(V64
p7298
tp7299
tp7300
Rp7301
sS'VIDEO_RANDOM_START'
p7302
S'VIDEO_RANDOM_START_OFF'
p7303
sS'AVAIL_COST_WEIGHT'
p7304
g6
(g7
S'QString'
p7305
(V1.0
p7306
tp7307
tp7308
Rp7309
sS'TIME_SHIFT'
p7310
S'0.0'
p7311
sS'WDM_TYPE'
p7312
S'WDM_FIXED'
p7313
sS'NUM_HEAVY_ONU'
p7314
g6
(g7
S'QString'
p7315
(V0
p7316
tp7317
tp7318
Rp7319
sS'NUM_SS_STREAMS'
p7320
g6
(g7
S'QString'
p7321
(V32
p7322
tp7323
tp7324
Rp7325
sS'NUM_ONU'
p7326
g6
(g7
S'QString'
p7327
(V32
p7328
tp7329
tp7330
Rp7331
sS'VIDEO_TRAFFIC'
p7332
S'VIDEO_TRAFFIC_OFF'
p7333
sS'FIXED_PROP_DELAY_VALUE'
p7334
g6
(g7
S'QString'
p7335
(V50e-6
p7336
tp7337
tp7338
Rp7339
sS'SIM_TRACE'
p7340
S'SIM_TRACE_OFF'
p7341
sS'SS_HURST_PARAM'
p7342
g6
(g7
S'QString'
p7343
(V0.75
p7344
tp7345
tp7346
Rp7347
sS'FRAME_RATE'
p7348
S'30.0'
p7349
sS'simID'
p7350
g6
(g7
S'QString'
p7351
(Vtest_0211
p7352
tp7353
tp7354
Rp7355
sssS'test_0210'
p7356
(dp7357
S'params'
p7358
(dp7359
S'SV_NUM_MA_VALUES'
p7360
g6
(g7
S'QString'
p7361
(V5
p7362
tp7363
tp7364
Rp7365
sS'NUM_PREFERRED_ONU'
p7366
g6
(g7
S'QString'
p7367
(V0
p7368
tp7369
tp7370
Rp7371
sS'PREDICTION_TYPE'
p7372
S'FFBI'
p7373
sS'SCHEDULER_SLOT_SIZE'
p7374
g6
(g7
S'QString'
p7375
(V64
p7376
tp7377
tp7378
Rp7379
sS'START_LAMBDA'
p7380
g6
(g7
S'QString'
p7381
(V1
p7382
tp7383
tp7384
Rp7385
sS'LOAD_INCR'
p7386
g6
(g7
S'QString'
p7387
(V0.1
p7388
tp7389
tp7390
Rp7391
sS'OLT_TYPE'
p7392
S'OLT_ONLINE_NASC'
p7393
sS'SIM_TIME'
p7394
g6
(g7
S'QString'
p7395
(V300
p7396
tp7397
tp7398
Rp7399
sS'SV_DROP_SENSITIVITY'
p7400
g6
(g7
S'QString'
p7401
(V1.0
p7402
tp7403
tp7404
Rp7405
sS'MAX_GRANT_SIZE'
p7406
g6
(g7
S'QString'
p7407
(V156876
p7408
tp7409
tp7410
Rp7411
sS'MAX_PROP_DELAY'
p7412
g6
(g7
S'QString'
p7413
(V50e-6
p7414
tp7415
tp7416
Rp7417
sS'SCALABLE_VIDEO_TRAFFIC'
p7418
S'SCALABLE_VIDEO_OFF'
p7419
sS'SV_MIN_BOUND'
p7420
g6
(g7
S'QString'
p7421
(V0.0005
p7422
tp7423
tp7424
Rp7425
sS'SV_MAX_BOUND'
p7426
g6
(g7
S'QString'
p7427
(V0.005
p7428
tp7429
tp7430
Rp7431
sS'FIXED_GRANT_SIZE'
p7432
g6
(g7
S'QString'
p7433
(V156876
p7434
tp7435
tp7436
Rp7437
sS'VIDEO_DBA_TYPE'
p7438
S'VIDEO_DBA_LIMITED_GATE'
p7439
sS'GUARD_TIME'
p7440
g6
(g7
S'QString'
p7441
(V1e-6
p7442
tp7443
tp7444
Rp7445
sS'TUNING_TIME'
p7446
g6
(g7
S'QString'
p7447
(V5e-3
p7448
tp7449
tp7450
Rp7451
sS'SIM_TRACE'
p7452
S'SIM_TRACE_OFF'
p7453
sS'LINK_SPEED'
p7454
g6
(g7
S'QString'
p7455
(V1e9
p7456
tp7457
tp7458
Rp7459
sS'END_LAMBDA'
p7460
g6
(g7
S'QString'
p7461
(V1
p7462
tp7463
tp7464
Rp7465
sS'VIDEO_TRAFFIC'
p7466
S'VIDEO_TRAFFIC_OFF'
p7467
sS'SCHEDULER_NUM_SLOT'
p7468
g6
(g7
S'QString'
p7469
(V180
p7470
tp7471
tp7472
Rp7473
sS'SV_DROP_LAYER_THRESHOLD'
p7474
g6
(g7
S'QString'
p7475
(V4
p7476
tp7477
tp7478
Rp7479
sS'NUM_RUNS'
p7480
g6
(g7
S'QString'
p7481
(V1
p7482
tp7483
tp7484
Rp7485
sS'VIDEO_PREDICTION'
p7486
S'VIDEO_PREDICTION_OFF'
p7487
sS'HEAVY_LOAD'
p7488
g6
(g7
S'QString'
p7489
(V2
p7490
tp7491
tp7492
Rp7493
sS'NUM_LH_WDM_ONU'
p7494
g6
(g7
S'QString'
p7495
(V0
p7496
tp7497
tp7498
Rp7499
sS'NUM_UH_WDM_ONU'
p7500
g6
(g7
S'QString'
p7501
(V0
p7502
tp7503
tp7504
Rp7505
sS'DBA_TYPE'
p7506
S'DBA_LIMITED_GATE'
p7507
sS'SCALABLE_VIDEO_DROPPING_ALGORITHM'
p7508
S'SCALABLE_VIDEO_DROPPING_OFF'
p7509
sS'SCHEDULER_MAX_WINDOW'
p7510
S'0'
p7511
sS'GET_TAIL'
p7512
S'GET_TAIL_OFF'
p7513
sS'VIDEO_TRACE_FILE'
p7514
g162
sS'FIXED_PROP_DELAY'
p7515
S'FIXED_PROP_DELAY_OFF'
p7516
sS'NUM_WDM_ONU'
p7517
g6
(g7
S'QString'
p7518
(V0
p7519
tp7520
tp7521
Rp7522
sS'TRAFFIC_TYPE'
p7523
S'TRAFFIC_POISSON'
p7524
sS'GRANT_TRACE'
p7525
S'GRANT_TRACE_OFF'
p7526
sS'STARVE_THRESH'
p7527
g6
(g7
S'QString'
p7528
(V64
p7529
tp7530
tp7531
Rp7532
sS'VIDEO_RANDOM_START'
p7533
S'VIDEO_RANDOM_START_OFF'
p7534
sS'AVAIL_COST_WEIGHT'
p7535
g6
(g7
S'QString'
p7536
(V1.0
p7537
tp7538
tp7539
Rp7540
sS'TIME_SHIFT'
p7541
S'0.0'
p7542
sS'WDM_TYPE'
p7543
S'WDM_FIXED'
p7544
sS'NUM_HEAVY_ONU'
p7545
g6
(g7
S'QString'
p7546
(V0
p7547
tp7548
tp7549
Rp7550
sS'NUM_SS_STREAMS'
p7551
g6
(g7
S'QString'
p7552
(V32
p7553
tp7554
tp7555
Rp7556
sS'NUM_ONU'
p7557
g6
(g7
S'QString'
p7558
(V32
p7559
tp7560
tp7561
Rp7562
sS'START_LOAD'
p7563
g6
(g7
S'QString'
p7564
(V0.1
p7565
tp7566
tp7567
Rp7568
sS'FIXED_PROP_DELAY_VALUE'
p7569
g6
(g7
S'QString'
p7570
(V50e-6
p7571
tp7572
tp7573
Rp7574
sS'END_LOAD'
p7575
g6
(g7
S'QString'
p7576
(V0.9
p7577
tp7578
tp7579
Rp7580
sS'SS_HURST_PARAM'
p7581
g6
(g7
S'QString'
p7582
(V0.75
p7583
tp7584
tp7585
Rp7586
sS'FRAME_RATE'
p7587
S'30.0'
p7588
sS'simID'
p7589
g6
(g7
S'QString'
p7590
(Vtest_0210
p7591
tp7592
tp7593
Rp7594
ssS'host'
p7595
S'localhost'
p7596
sS'pid'
p7597
I26705
ssS'test_0235'
p7598
(dp7599
g3321
(dp7600
g3323
g6
(g7
S'QString'
p7601
(V5
p7602
tp7603
tp7604
Rp7605
sg3329
g6
(g7
S'QString'
p7606
(V0
p7607
tp7608
tp7609
Rp7610
sg3335
g3336
sg3337
g6
(g7
S'QString'
p7611
(V64
p7612
tp7613
tp7614
Rp7615
sg3343
g6
(g7
S'QString'
p7616
(V1
p7617
tp7618
tp7619
Rp7620
sg3349
g6
(g7
S'QString'
p7621
(V0.1
p7622
tp7623
tp7624
Rp7625
sg3355
g6
(g7
S'QString'
p7626
(V0.1
p7627
tp7628
tp7629
Rp7630
sg3361
S'OLT_SPD'
p7631
sg3363
g6
(g7
S'QString'
p7632
(V300
p7633
tp7634
tp7635
Rp7636
sg3369
g3370
sg3371
g3372
sg3373
g6
(g7
S'QString'
p7637
(V50e-6
p7638
tp7639
tp7640
Rp7641
sg3379
g6
(g7
S'QString'
p7642
(V156876
p7643
tp7644
tp7645
Rp7646
sg3385
g6
(g7
S'QString'
p7647
(V0.0005
p7648
tp7649
tp7650
Rp7651
sg3391
g6
(g7
S'QString'
p7652
(V0.005
p7653
tp7654
tp7655
Rp7656
sg3397
g6
(g7
S'QString'
p7657
(V156876
p7658
tp7659
tp7660
Rp7661
sg3403
g3404
sg3405
g6
(g7
S'QString'
p7662
(V1e-6
p7663
tp7664
tp7665
Rp7666
sg3411
g6
(g7
S'QString'
p7667
(V5e-3
p7668
tp7669
tp7670
Rp7671
sg3417
g6
(g7
S'QString'
p7672
(V0.9
p7673
tp7674
tp7675
Rp7676
sg3423
g6
(g7
S'QString'
p7677
(V1e9
p7678
tp7679
tp7680
Rp7681
sg3429
g6
(g7
S'QString'
p7682
(V1
p7683
tp7684
tp7685
Rp7686
sg3435
g6
(g7
S'QString'
p7687
(V180
p7688
tp7689
tp7690
Rp7691
sg3441
g6
(g7
S'QString'
p7692
(V4
p7693
tp7694
tp7695
Rp7696
sg3447
g6
(g7
S'QString'
p7697
(V1
p7698
tp7699
tp7700
Rp7701
sg3453
g3454
sg3455
g6
(g7
S'QString'
p7702
(V2
p7703
tp7704
tp7705
Rp7706
sg3461
g6
(g7
S'QString'
p7707
(V0
p7708
tp7709
tp7710
Rp7711
sg3467
g6
(g7
S'QString'
p7712
(V0
p7713
tp7714
tp7715
Rp7716
sg3473
g3474
sg3475
g3476
sg3477
g3478
sg3479
g162
sg3480
g3481
sg3482
g6
(g7
S'QString'
p7717
(V0
p7718
tp7719
tp7720
Rp7721
sg3488
g3489
sg3490
g3491
sg3492
g6
(g7
S'QString'
p7722
(V64
p7723
tp7724
tp7725
Rp7726
sg3498
g3499
sg3500
g6
(g7
S'QString'
p7727
(V1.0
p7728
tp7729
tp7730
Rp7731
sg3506
g3507
sg3508
g3509
sg3510
g6
(g7
S'QString'
p7732
(V1.0
p7733
tp7734
tp7735
Rp7736
sg3516
g6
(g7
S'QString'
p7737
(V0
p7738
tp7739
tp7740
Rp7741
sg3522
g6
(g7
S'QString'
p7742
(V32
p7743
tp7744
tp7745
Rp7746
sg3528
g6
(g7
S'QString'
p7747
(V32
p7748
tp7749
tp7750
Rp7751
sg3534
g3535
sg3536
g6
(g7
S'QString'
p7752
(V50e-6
p7753
tp7754
tp7755
Rp7756
sg3542
g3543
sg3544
g6
(g7
S'QString'
p7757
(V0.75
p7758
tp7759
tp7760
Rp7761
sg3550
g3551
sg3552
g6
(g7
S'QString'
p7762
(Vtest_0235
p7763
tp7764
tp7765
Rp7766
ssg3558
g3559
sg3560
I31873
ssS'test_0237'
p7767
(dp7768
g3321
(dp7769
g3323
g6
(g7
S'QString'
p7770
(V5
p7771
tp7772
tp7773
Rp7774
sg3329
g6
(g7
S'QString'
p7775
(V0
p7776
tp7777
tp7778
Rp7779
sg3335
g3336
sg3337
g6
(g7
S'QString'
p7780
(V64
p7781
tp7782
tp7783
Rp7784
sg3343
g6
(g7
S'QString'
p7785
(V1
p7786
tp7787
tp7788
Rp7789
sg3349
g6
(g7
S'QString'
p7790
(V0.1
p7791
tp7792
tp7793
Rp7794
sg3355
g6
(g7
S'QString'
p7795
(V0.1
p7796
tp7797
tp7798
Rp7799
sg3361
S'OLT_EAF'
p7800
sg3363
g6
(g7
S'QString'
p7801
(V300
p7802
tp7803
tp7804
Rp7805
sg3369
g3370
sg3371
g3372
sg3373
g6
(g7
S'QString'
p7806
(V50e-6
p7807
tp7808
tp7809
Rp7810
sg3379
g6
(g7
S'QString'
p7811
(V156876
p7812
tp7813
tp7814
Rp7815
sg3385
g6
(g7
S'QString'
p7816
(V0.0005
p7817
tp7818
tp7819
Rp7820
sg3391
g6
(g7
S'QString'
p7821
(V0.005
p7822
tp7823
tp7824
Rp7825
sg3397
g6
(g7
S'QString'
p7826
(V156876
p7827
tp7828
tp7829
Rp7830
sg3403
g3404
sg3405
g6
(g7
S'QString'
p7831
(V1e-6
p7832
tp7833
tp7834
Rp7835
sg3411
g6
(g7
S'QString'
p7836
(V5e-3
p7837
tp7838
tp7839
Rp7840
sg3417
g6
(g7
S'QString'
p7841
(V0.9
p7842
tp7843
tp7844
Rp7845
sg3423
g6
(g7
S'QString'
p7846
(V1e9
p7847
tp7848
tp7849
Rp7850
sg3429
g6
(g7
S'QString'
p7851
(V1
p7852
tp7853
tp7854
Rp7855
sg3435
g6
(g7
S'QString'
p7856
(V180
p7857
tp7858
tp7859
Rp7860
sg3441
g6
(g7
S'QString'
p7861
(V4
p7862
tp7863
tp7864
Rp7865
sg3447
g6
(g7
S'QString'
p7866
(V1
p7867
tp7868
tp7869
Rp7870
sg3453
g3454
sg3455
g6
(g7
S'QString'
p7871
(V2
p7872
tp7873
tp7874
Rp7875
sg3461
g6
(g7
S'QString'
p7876
(V0
p7877
tp7878
tp7879
Rp7880
sg3467
g6
(g7
S'QString'
p7881
(V0
p7882
tp7883
tp7884
Rp7885
sg3473
g3474
sg3475
g3476
sg3477
g3478
sg3479
g162
sg3480
g3481
sg3482
g6
(g7
S'QString'
p7886
(V0
p7887
tp7888
tp7889
Rp7890
sg3488
g3489
sg3490
g3491
sg3492
g6
(g7
S'QString'
p7891
(V64
p7892
tp7893
tp7894
Rp7895
sg3498
g3499
sg3500
g6
(g7
S'QString'
p7896
(V1.0
p7897
tp7898
tp7899
Rp7900
sg3506
g3507
sg3508
g3509
sg3510
g6
(g7
S'QString'
p7901
(V1.0
p7902
tp7903
tp7904
Rp7905
sg3516
g6
(g7
S'QString'
p7906
(V0
p7907
tp7908
tp7909
Rp7910
sg3522
g6
(g7
S'QString'
p7911
(V32
p7912
tp7913
tp7914
Rp7915
sg3528
g6
(g7
S'QString'
p7916
(V32
p7917
tp7918
tp7919
Rp7920
sg3534
g3535
sg3536
g6
(g7
S'QString'
p7921
(V50e-6
p7922
tp7923
tp7924
Rp7925
sg3542
g3543
sg3544
g6
(g7
S'QString'
p7926
(V0.75
p7927
tp7928
tp7929
Rp7930
sg3550
g3551
sg3552
g6
(g7
S'QString'
p7931
(Vtest_0237
p7932
tp7933
tp7934
Rp7935
ssg3558
g3559
sg3560
I31951
ssS'test_0236'
p7936
(dp7937
g3321
(dp7938
g3323
g6
(g7
S'QString'
p7939
(V5
p7940
tp7941
tp7942
Rp7943
sg3329
g6
(g7
S'QString'
p7944
(V0
p7945
tp7946
tp7947
Rp7948
sg3335
g3336
sg3337
g6
(g7
S'QString'
p7949
(V64
p7950
tp7951
tp7952
Rp7953
sg3343
g6
(g7
S'QString'
p7954
(V1
p7955
tp7956
tp7957
Rp7958
sg3355
g6
(g7
S'QString'
p7959
(V0.1
p7960
tp7961
tp7962
Rp7963
sg3361
S'OLT_LPD'
p7964
sg3363
g6
(g7
S'QString'
p7965
(V300
p7966
tp7967
tp7968
Rp7969
sg3510
g6
(g7
S'QString'
p7970
(V1.0
p7971
tp7972
tp7973
Rp7974
sg3379
g6
(g7
S'QString'
p7975
(V156876
p7976
tp7977
tp7978
Rp7979
sg3373
g6
(g7
S'QString'
p7980
(V50e-6
p7981
tp7982
tp7983
Rp7984
sg3371
g3372
sg3385
g6
(g7
S'QString'
p7985
(V0.0005
p7986
tp7987
tp7988
Rp7989
sg3391
g6
(g7
S'QString'
p7990
(V0.005
p7991
tp7992
tp7993
Rp7994
sg3397
g6
(g7
S'QString'
p7995
(V156876
p7996
tp7997
tp7998
Rp7999
sg3403
g3404
sg3405
g6
(g7
S'QString'
p8000
(V1e-6
p8001
tp8002
tp8003
Rp8004
sg3411
g6
(g7
S'QString'
p8005
(V5e-3
p8006
tp8007
tp8008
Rp8009
sg3542
g3543
sg3423
g6
(g7
S'QString'
p8010
(V1e9
p8011
tp8012
tp8013
Rp8014
sg3429
g6
(g7
S'QString'
p8015
(V1
p8016
tp8017
tp8018
Rp8019
sg3534
g3535
sg3435
g6
(g7
S'QString'
p8020
(V180
p8021
tp8022
tp8023
Rp8024
sg3441
g6
(g7
S'QString'
p8025
(V4
p8026
tp8027
tp8028
Rp8029
sg3447
g6
(g7
S'QString'
p8030
(V1
p8031
tp8032
tp8033
Rp8034
sg3453
g3454
sg3455
g6
(g7
S'QString'
p8035
(V2
p8036
tp8037
tp8038
Rp8039
sg3461
g6
(g7
S'QString'
p8040
(V0
p8041
tp8042
tp8043
Rp8044
sg3467
g6
(g7
S'QString'
p8045
(V0
p8046
tp8047
tp8048
Rp8049
sg3369
g3370
sg3473
g3474
sg3475
g3476
sg3477
g3478
sg3479
g162
sg3480
g3481
sg3482
g6
(g7
S'QString'
p8050
(V0
p8051
tp8052
tp8053
Rp8054
sg3488
g3489
sg3490
g3491
sg3492
g6
(g7
S'QString'
p8055
(V64
p8056
tp8057
tp8058
Rp8059
sg3498
g3499
sg3500
g6
(g7
S'QString'
p8060
(V1.0
p8061
tp8062
tp8063
Rp8064
sg3506
g3507
sg3508
g3509
sg3516
g6
(g7
S'QString'
p8065
(V0
p8066
tp8067
tp8068
Rp8069
sg3522
g6
(g7
S'QString'
p8070
(V32
p8071
tp8072
tp8073
Rp8074
sg3528
g6
(g7
S'QString'
p8075
(V32
p8076
tp8077
tp8078
Rp8079
sg3349
g6
(g7
S'QString'
p8080
(V0.1
p8081
tp8082
tp8083
Rp8084
sg3536
g6
(g7
S'QString'
p8085
(V50e-6
p8086
tp8087
tp8088
Rp8089
sg3417
g6
(g7
S'QString'
p8090
(V0.9
p8091
tp8092
tp8093
Rp8094
sg3544
g6
(g7
S'QString'
p8095
(V0.75
p8096
tp8097
tp8098
Rp8099
sg3550
g3551
sg3552
g6
(g7
S'QString'
p8100
(Vtest_0236
p8101
tp8102
tp8103
Rp8104
ssg3558
g3559
sg3560
I31916
ssS'Results_ForFigureMaking'
p8105
(dp8106
S'params'
p8107
(dp8108
S'SV_NUM_MA_VALUES'
p8109
S'5'
p8110
sS'NUM_PREFERRED_ONU'
p8111
S'0'
p8112
sS'PREDICTION_TYPE'
p8113
S'FFBI'
p8114
sS'SCHEDULER_SLOT_SIZE'
p8115
S'64'
p8116
sS'START_LAMBDA'
p8117
S'1'
p8118
sS'START_LOAD'
p8119
S'0.1'
p8120
sS'LOAD_INCR'
p8121
g8120
sS'OLT_TYPE'
p8122
S'OLT_ONLINE_NASC'
p8123
sS'SIM_TIME'
p8124
S'300'
p8125
sS'SV_DROP_SENSITIVITY'
p8126
S'1.0'
p8127
sS'MAX_GRANT_SIZE'
p8128
S'156876'
p8129
sS'MAX_PROP_DELAY'
p8130
S'50e-6'
p8131
sS'SCALABLE_VIDEO_TRAFFIC'
p8132
S'SCALABLE_VIDEO_OFF'
p8133
sS'SV_MIN_BOUND'
p8134
S'0.0005'
p8135
sS'SV_MAX_BOUND'
p8136
S'0.005'
p8137
sS'FIXED_GRANT_SIZE'
p8138
g8129
sS'VIDEO_DBA_TYPE'
p8139
S'VIDEO_DBA_LIMITED'
p8140
sS'GUARD_TIME'
p8141
S'1e-6'
p8142
sS'TUNING_TIME'
p8143
S'5e-3'
p8144
sS'END_LOAD'
p8145
S'0.9'
p8146
sS'LINK_SPEED'
p8147
S'1e9'
p8148
sS'END_LAMBDA'
p8149
g8118
sS'SCHEDULER_NUM_SLOT'
p8150
S'180'
p8151
sS'SV_DROP_LAYER_THRESHOLD'
p8152
S'4'
p8153
sS'NUM_RUNS'
p8154
g8118
sS'VIDEO_PREDICTION'
p8155
S'VIDEO_PREDICTION_OFF'
p8156
sS'HEAVY_LOAD'
p8157
S'2'
p8158
sS'NUM_LH_WDM_ONU'
p8159
g8112
sS'NUM_UH_WDM_ONU'
p8160
g8112
sS'DBA_TYPE'
p8161
S'DBA_LIMITED'
p8162
sS'SCALABLE_VIDEO_DROPPING_ALGORITHM'
p8163
S'SCALABLE_VIDEO_DROPPING_OFF'
p8164
sS'SCHEDULER_MAX_WINDOW'
p8165
S'NULL'
p8166
sS'GET_TAIL'
p8167
S'GET_TAIL_OFF'
p8168
sS'VIDEO_TRACE_FILE'
p8169
g162
sS'FIXED_PROP_DELAY'
p8170
S'FIXED_PROP_DELAY_OFF'
p8171
sS'NUM_WDM_ONU'
p8172
g8112
sS'TRAFFIC_TYPE'
p8173
S'TRAFFIC_POISSON'
p8174
sS'GRANT_TRACE'
p8175
S'GRANT_TRACE_OFF'
p8176
sS'STARVE_THRESH'
p8177
g8116
sS'VIDEO_RANDOM_START'
p8178
S'VIDEO_RANDOM_START_OFF'
p8179
sS'AVAIL_COST_WEIGHT'
p8180
g8127
sS'TIME_SHIFT'
p8181
S'0.0'
p8182
sS'WDM_TYPE'
p8183
S'WDM_FIXED'
p8184
sS'NUM_HEAVY_ONU'
p8185
g8112
sS'NUM_SS_STREAMS'
p8186
S'32'
p8187
sS'NUM_ONU'
p8188
g8187
sS'VIDEO_TRAFFIC'
p8189
S'VIDEO_TRAFFIC_OFF'
p8190
sS'FIXED_PROP_DELAY_VALUE'
p8191
g8131
sS'SIM_TRACE'
p8192
S'SIM_TRACE_OFF'
p8193
sS'SS_HURST_PARAM'
p8194
S'0.75'
p8195
sS'FRAME_RATE'
p8196
S'30.0'
p8197
sS'simID'
p8198
g162
ssS'host'
p8199
S'null'
p8200
sS'pid'
p8201
I0
ssS'test_0234'
p8202
(dp8203
g3321
(dp8204
g3323
g6
(g7
S'QString'
p8205
(V5
p8206
tp8207
tp8208
Rp8209
sg3329
g6
(g7
S'QString'
p8210
(V0
p8211
tp8212
tp8213
Rp8214
sg3335
g3336
sg3337
g6
(g7
S'QString'
p8215
(V64
p8216
tp8217
tp8218
Rp8219
sg3343
g6
(g7
S'QString'
p8220
(V1
p8221
tp8222
tp8223
Rp8224
sg3355
g6
(g7
S'QString'
p8225
(V0.1
p8226
tp8227
tp8228
Rp8229
sg3361
S'OLT_LFJ_LNF'
p8230
sg3363
g6
(g7
S'QString'
p8231
(V300
p8232
tp8233
tp8234
Rp8235
sg3510
g6
(g7
S'QString'
p8236
(V1.0
p8237
tp8238
tp8239
Rp8240
sg3379
g6
(g7
S'QString'
p8241
(V156876
p8242
tp8243
tp8244
Rp8245
sg3373
g6
(g7
S'QString'
p8246
(V50e-6
p8247
tp8248
tp8249
Rp8250
sg3371
g3372
sg3385
g6
(g7
S'QString'
p8251
(V0.0005
p8252
tp8253
tp8254
Rp8255
sg3391
g6
(g7
S'QString'
p8256
(V0.005
p8257
tp8258
tp8259
Rp8260
sg3397
g6
(g7
S'QString'
p8261
(V156876
p8262
tp8263
tp8264
Rp8265
sg3403
g3404
sg3405
g6
(g7
S'QString'
p8266
(V1e-6
p8267
tp8268
tp8269
Rp8270
sg3411
g6
(g7
S'QString'
p8271
(V5e-3
p8272
tp8273
tp8274
Rp8275
sg3542
g3543
sg3423
g6
(g7
S'QString'
p8276
(V1e9
p8277
tp8278
tp8279
Rp8280
sg3429
g6
(g7
S'QString'
p8281
(V1
p8282
tp8283
tp8284
Rp8285
sg3534
g3535
sg3435
g6
(g7
S'QString'
p8286
(V180
p8287
tp8288
tp8289
Rp8290
sg3441
g6
(g7
S'QString'
p8291
(V4
p8292
tp8293
tp8294
Rp8295
sg3447
g6
(g7
S'QString'
p8296
(V1
p8297
tp8298
tp8299
Rp8300
sg3453
g3454
sg3455
g6
(g7
S'QString'
p8301
(V2
p8302
tp8303
tp8304
Rp8305
sg3461
g6
(g7
S'QString'
p8306
(V0
p8307
tp8308
tp8309
Rp8310
sg3467
g6
(g7
S'QString'
p8311
(V0
p8312
tp8313
tp8314
Rp8315
sg3369
g3370
sg3473
g3474
sg3475
g3476
sg3477
g3478
sg3479
g162
sg3480
g3481
sg3482
g6
(g7
S'QString'
p8316
(V0
p8317
tp8318
tp8319
Rp8320
sg3488
g3489
sg3490
g3491
sg3492
g6
(g7
S'QString'
p8321
(V64
p8322
tp8323
tp8324
Rp8325
sg3498
g3499
sg3500
g6
(g7
S'QString'
p8326
(V1.0
p8327
tp8328
tp8329
Rp8330
sg3506
g3507
sg3508
g3509
sg3516
g6
(g7
S'QString'
p8331
(V0
p8332
tp8333
tp8334
Rp8335
sg3522
g6
(g7
S'QString'
p8336
(V32
p8337
tp8338
tp8339
Rp8340
sg3528
g6
(g7
S'QString'
p8341
(V32
p8342
tp8343
tp8344
Rp8345
sg3349
g6
(g7
S'QString'
p8346
(V0.1
p8347
tp8348
tp8349
Rp8350
sg3536
g6
(g7
S'QString'
p8351
(V50e-6
p8352
tp8353
tp8354
Rp8355
sg3417
g6
(g7
S'QString'
p8356
(V0.9
p8357
tp8358
tp8359
Rp8360
sg3544
g6
(g7
S'QString'
p8361
(V0.75
p8362
tp8363
tp8364
Rp8365
sg3550
g3551
sg3552
g6
(g7
S'QString'
p8366
(Vtest_0234
p8367
tp8368
tp8369
Rp8370
ssg3558
g3559
sg3560
I31838
ssS'test_0248'
p8371
(dp8372
g3321
(dp8373
g3323
g6
(g7
S'QString'
p8374
(V5
p8375
tp8376
tp8377
Rp8378
sg3329
g6
(g7
S'QString'
p8379
(V0
p8380
tp8381
tp8382
Rp8383
sg3335
g3336
sg3337
g6
(g7
S'QString'
p8384
(V64
p8385
tp8386
tp8387
Rp8388
sg3343
g6
(g7
S'QString'
p8389
(V1
p8390
tp8391
tp8392
Rp8393
sg3355
g6
(g7
S'QString'
p8394
(V0.1
p8395
tp8396
tp8397
Rp8398
sg3361
S'OLT_ONLINE_JIT_SPD'
p8399
sg3363
g6
(g7
S'QString'
p8400
(V300
p8401
tp8402
tp8403
Rp8404
sg3510
g6
(g7
S'QString'
p8405
(V1.0
p8406
tp8407
tp8408
Rp8409
sg3379
g6
(g7
S'QString'
p8410
(V156876
p8411
tp8412
tp8413
Rp8414
sg3373
g6
(g7
S'QString'
p8415
(V50e-6
p8416
tp8417
tp8418
Rp8419
sg3371
g3372
sg3385
g6
(g7
S'QString'
p8420
(V0.0005
p8421
tp8422
tp8423
Rp8424
sg3391
g6
(g7
S'QString'
p8425
(V0.005
p8426
tp8427
tp8428
Rp8429
sg3397
g6
(g7
S'QString'
p8430
(V156876
p8431
tp8432
tp8433
Rp8434
sg3403
g3404
sg3405
g6
(g7
S'QString'
p8435
(V1e-6
p8436
tp8437
tp8438
Rp8439
sg3411
g6
(g7
S'QString'
p8440
(V5e-3
p8441
tp8442
tp8443
Rp8444
sg3542
g3543
sg3423
g6
(g7
S'QString'
p8445
(V1e9
p8446
tp8447
tp8448
Rp8449
sg3429
g6
(g7
S'QString'
p8450
(V1
p8451
tp8452
tp8453
Rp8454
sg3534
g3535
sg3435
g6
(g7
S'QString'
p8455
(V180
p8456
tp8457
tp8458
Rp8459
sg3441
g6
(g7
S'QString'
p8460
(V4
p8461
tp8462
tp8463
Rp8464
sg3447
g6
(g7
S'QString'
p8465
(V1
p8466
tp8467
tp8468
Rp8469
sg3453
g3454
sg3455
g6
(g7
S'QString'
p8470
(V2
p8471
tp8472
tp8473
Rp8474
sg3461
g6
(g7
S'QString'
p8475
(V0
p8476
tp8477
tp8478
Rp8479
sg3467
g6
(g7
S'QString'
p8480
(V0
p8481
tp8482
tp8483
Rp8484
sg3369
g3370
sg3473
g3474
sg3475
g3476
sg3477
g3478
sg3479
g162
sg3480
g3481
sg3482
g6
(g7
S'QString'
p8485
(V0
p8486
tp8487
tp8488
Rp8489
sg3488
g3489
sg3490
g3491
sg3492
g6
(g7
S'QString'
p8490
(V64
p8491
tp8492
tp8493
Rp8494
sg3498
g3499
sg3500
g6
(g7
S'QString'
p8495
(V1.0
p8496
tp8497
tp8498
Rp8499
sg3506
g3507
sg3508
g3509
sg3516
g6
(g7
S'QString'
p8500
(V0
p8501
tp8502
tp8503
Rp8504
sg3522
g6
(g7
S'QString'
p8505
(V32
p8506
tp8507
tp8508
Rp8509
sg3528
g6
(g7
S'QString'
p8510
(V32
p8511
tp8512
tp8513
Rp8514
sg3349
g6
(g7
S'QString'
p8515
(V0.1
p8516
tp8517
tp8518
Rp8519
sg3536
g6
(g7
S'QString'
p8520
(V50e-6
p8521
tp8522
tp8523
Rp8524
sg3417
g6
(g7
S'QString'
p8525
(V0.9
p8526
tp8527
tp8528
Rp8529
sg3544
g6
(g7
S'QString'
p8530
(V0.75
p8531
tp8532
tp8533
Rp8534
sg3550
g3551
sg3552
g6
(g7
S'QString'
p8535
(Vtest_0248
p8536
tp8537
tp8538
Rp8539
ssg3558
g3559
sg3560
I32373
ssS'test_0249'
p8540
(dp8541
g3321
(dp8542
g3323
g6
(g7
S'QString'
p8543
(V5
p8544
tp8545
tp8546
Rp8547
sg3329
g6
(g7
S'QString'
p8548
(V0
p8549
tp8550
tp8551
Rp8552
sg3335
g3336
sg3337
g6
(g7
S'QString'
p8553
(V64
p8554
tp8555
tp8556
Rp8557
sg3343
g6
(g7
S'QString'
p8558
(V1
p8559
tp8560
tp8561
Rp8562
sg3349
g6
(g7
S'QString'
p8563
(V0.1
p8564
tp8565
tp8566
Rp8567
sg3355
g6
(g7
S'QString'
p8568
(V0.1
p8569
tp8570
tp8571
Rp8572
sg3361
S'OLT_ONLINE_JIT_EAF'
p8573
sg3363
g6
(g7
S'QString'
p8574
(V300
p8575
tp8576
tp8577
Rp8578
sg3369
g3370
sg3371
g3372
sg3373
g6
(g7
S'QString'
p8579
(V50e-6
p8580
tp8581
tp8582
Rp8583
sg3379
g6
(g7
S'QString'
p8584
(V156876
p8585
tp8586
tp8587
Rp8588
sg3385
g6
(g7
S'QString'
p8589
(V0.0005
p8590
tp8591
tp8592
Rp8593
sg3391
g6
(g7
S'QString'
p8594
(V0.005
p8595
tp8596
tp8597
Rp8598
sg3397
g6
(g7
S'QString'
p8599
(V156876
p8600
tp8601
tp8602
Rp8603
sg3403
g3404
sg3405
g6
(g7
S'QString'
p8604
(V1e-6
p8605
tp8606
tp8607
Rp8608
sg3411
g6
(g7
S'QString'
p8609
(V5e-3
p8610
tp8611
tp8612
Rp8613
sg3417
g6
(g7
S'QString'
p8614
(V0.9
p8615
tp8616
tp8617
Rp8618
sg3423
g6
(g7
S'QString'
p8619
(V1e9
p8620
tp8621
tp8622
Rp8623
sg3429
g6
(g7
S'QString'
p8624
(V1
p8625
tp8626
tp8627
Rp8628
sg3435
g6
(g7
S'QString'
p8629
(V180
p8630
tp8631
tp8632
Rp8633
sg3441
g6
(g7
S'QString'
p8634
(V4
p8635
tp8636
tp8637
Rp8638
sg3447
g6
(g7
S'QString'
p8639
(V1
p8640
tp8641
tp8642
Rp8643
sg3453
g3454
sg3455
g6
(g7
S'QString'
p8644
(V2
p8645
tp8646
tp8647
Rp8648
sg3461
g6
(g7
S'QString'
p8649
(V0
p8650
tp8651
tp8652
Rp8653
sg3467
g6
(g7
S'QString'
p8654
(V0
p8655
tp8656
tp8657
Rp8658
sg3473
g3474
sg3475
g3476
sg3477
g3478
sg3479
g162
sg3480
g3481
sg3482
g6
(g7
S'QString'
p8659
(V0
p8660
tp8661
tp8662
Rp8663
sg3488
g3489
sg3490
g3491
sg3492
g6
(g7
S'QString'
p8664
(V64
p8665
tp8666
tp8667
Rp8668
sg3498
g3499
sg3500
g6
(g7
S'QString'
p8669
(V1.0
p8670
tp8671
tp8672
Rp8673
sg3506
g3507
sg3508
g3509
sg3510
g6
(g7
S'QString'
p8674
(V1.0
p8675
tp8676
tp8677
Rp8678
sg3516
g6
(g7
S'QString'
p8679
(V0
p8680
tp8681
tp8682
Rp8683
sg3522
g6
(g7
S'QString'
p8684
(V32
p8685
tp8686
tp8687
Rp8688
sg3528
g6
(g7
S'QString'
p8689
(V32
p8690
tp8691
tp8692
Rp8693
sg3534
g3535
sg3536
g6
(g7
S'QString'
p8694
(V50e-6
p8695
tp8696
tp8697
Rp8698
sg3542
g3543
sg3544
g6
(g7
S'QString'
p8699
(V0.75
p8700
tp8701
tp8702
Rp8703
sg3550
g3551
sg3552
g6
(g7
S'QString'
p8704
(Vtest_0249
p8705
tp8706
tp8707
Rp8708
ssg3558
g3559
sg3560
I32408
ssS'test_0244'
p8709
(dp8710
g3321
(dp8711
g3323
g6
(g7
S'QString'
p8712
(V5
p8713
tp8714
tp8715
Rp8716
sg3329
g6
(g7
S'QString'
p8717
(V0
p8718
tp8719
tp8720
Rp8721
sg3335
g3336
sg3337
g6
(g7
S'QString'
p8722
(V64
p8723
tp8724
tp8725
Rp8726
sg3343
g6
(g7
S'QString'
p8727
(V1
p8728
tp8729
tp8730
Rp8731
sg3355
g6
(g7
S'QString'
p8732
(V0.1
p8733
tp8734
tp8735
Rp8736
sg3361
S'OLT_ONLINE_INTERVAL_EAAF'
p8737
sg3363
g6
(g7
S'QString'
p8738
(V300
p8739
tp8740
tp8741
Rp8742
sg3510
g6
(g7
S'QString'
p8743
(V1.0
p8744
tp8745
tp8746
Rp8747
sg3379
g6
(g7
S'QString'
p8748
(V156876
p8749
tp8750
tp8751
Rp8752
sg3373
g6
(g7
S'QString'
p8753
(V50e-6
p8754
tp8755
tp8756
Rp8757
sg3371
g3372
sg3385
g6
(g7
S'QString'
p8758
(V0.0005
p8759
tp8760
tp8761
Rp8762
sg3391
g6
(g7
S'QString'
p8763
(V0.005
p8764
tp8765
tp8766
Rp8767
sg3397
g6
(g7
S'QString'
p8768
(V156876
p8769
tp8770
tp8771
Rp8772
sg3403
g3404
sg3405
g6
(g7
S'QString'
p8773
(V1e-6
p8774
tp8775
tp8776
Rp8777
sg3411
g6
(g7
S'QString'
p8778
(V5e-3
p8779
tp8780
tp8781
Rp8782
sg3542
g3543
sg3423
g6
(g7
S'QString'
p8783
(V1e9
p8784
tp8785
tp8786
Rp8787
sg3429
g6
(g7
S'QString'
p8788
(V1
p8789
tp8790
tp8791
Rp8792
sg3534
g3535
sg3435
g6
(g7
S'QString'
p8793
(V180
p8794
tp8795
tp8796
Rp8797
sg3441
g6
(g7
S'QString'
p8798
(V4
p8799
tp8800
tp8801
Rp8802
sg3447
g6
(g7
S'QString'
p8803
(V1
p8804
tp8805
tp8806
Rp8807
sg3453
g3454
sg3455
g6
(g7
S'QString'
p8808
(V2
p8809
tp8810
tp8811
Rp8812
sg3461
g6
(g7
S'QString'
p8813
(V0
p8814
tp8815
tp8816
Rp8817
sg3467
g6
(g7
S'QString'
p8818
(V0
p8819
tp8820
tp8821
Rp8822
sg3369
g3370
sg3473
g3474
sg3475
g3476
sg3477
g3478
sg3479
g162
sg3480
g3481
sg3482
g6
(g7
S'QString'
p8823
(V0
p8824
tp8825
tp8826
Rp8827
sg3488
g3489
sg3490
g3491
sg3492
g6
(g7
S'QString'
p8828
(V64
p8829
tp8830
tp8831
Rp8832
sg3498
g3499
sg3500
g6
(g7
S'QString'
p8833
(V1.0
p8834
tp8835
tp8836
Rp8837
sg3506
g3507
sg3508
g3509
sg3516
g6
(g7
S'QString'
p8838
(V0
p8839
tp8840
tp8841
Rp8842
sg3522
g6
(g7
S'QString'
p8843
(V32
p8844
tp8845
tp8846
Rp8847
sg3528
g6
(g7
S'QString'
p8848
(V32
p8849
tp8850
tp8851
Rp8852
sg3349
g6
(g7
S'QString'
p8853
(V0.1
p8854
tp8855
tp8856
Rp8857
sg3536
g6
(g7
S'QString'
p8858
(V50e-6
p8859
tp8860
tp8861
Rp8862
sg3417
g6
(g7
S'QString'
p8863
(V0.9
p8864
tp8865
tp8866
Rp8867
sg3544
g6
(g7
S'QString'
p8868
(V0.75
p8869
tp8870
tp8871
Rp8872
sg3550
g3551
sg3552
g6
(g7
S'QString'
p8873
(Vtest_0244
p8874
tp8875
tp8876
Rp8877
ssg3558
g3559
sg3560
I32221
ssS'test_0245'
p8878
(dp8879
g3321
(dp8880
g3323
g6
(g7
S'QString'
p8881
(V5
p8882
tp8883
tp8884
Rp8885
sg3329
g6
(g7
S'QString'
p8886
(V0
p8887
tp8888
tp8889
Rp8890
sg3335
g3336
sg3337
g6
(g7
S'QString'
p8891
(V64
p8892
tp8893
tp8894
Rp8895
sg3343
g6
(g7
S'QString'
p8896
(V1
p8897
tp8898
tp8899
Rp8900
sg3349
g6
(g7
S'QString'
p8901
(V0.1
p8902
tp8903
tp8904
Rp8905
sg3355
g6
(g7
S'QString'
p8906
(V0.1
p8907
tp8908
tp8909
Rp8910
sg3361
S'OLT_ONLINE_JIT_LFJ_LPT'
p8911
sg3363
g6
(g7
S'QString'
p8912
(V300
p8913
tp8914
tp8915
Rp8916
sg3369
g3370
sg3371
g3372
sg3373
g6
(g7
S'QString'
p8917
(V50e-6
p8918
tp8919
tp8920
Rp8921
sg3379
g6
(g7
S'QString'
p8922
(V156876
p8923
tp8924
tp8925
Rp8926
sg3385
g6
(g7
S'QString'
p8927
(V0.0005
p8928
tp8929
tp8930
Rp8931
sg3391
g6
(g7
S'QString'
p8932
(V0.005
p8933
tp8934
tp8935
Rp8936
sg3397
g6
(g7
S'QString'
p8937
(V156876
p8938
tp8939
tp8940
Rp8941
sg3403
g3404
sg3405
g6
(g7
S'QString'
p8942
(V1e-6
p8943
tp8944
tp8945
Rp8946
sg3411
g6
(g7
S'QString'
p8947
(V5e-3
p8948
tp8949
tp8950
Rp8951
sg3417
g6
(g7
S'QString'
p8952
(V0.9
p8953
tp8954
tp8955
Rp8956
sg3423
g6
(g7
S'QString'
p8957
(V1e9
p8958
tp8959
tp8960
Rp8961
sg3429
g6
(g7
S'QString'
p8962
(V1
p8963
tp8964
tp8965
Rp8966
sg3435
g6
(g7
S'QString'
p8967
(V180
p8968
tp8969
tp8970
Rp8971
sg3441
g6
(g7
S'QString'
p8972
(V4
p8973
tp8974
tp8975
Rp8976
sg3447
g6
(g7
S'QString'
p8977
(V1
p8978
tp8979
tp8980
Rp8981
sg3453
g3454
sg3455
g6
(g7
S'QString'
p8982
(V2
p8983
tp8984
tp8985
Rp8986
sg3461
g6
(g7
S'QString'
p8987
(V0
p8988
tp8989
tp8990
Rp8991
sg3467
g6
(g7
S'QString'
p8992
(V0
p8993
tp8994
tp8995
Rp8996
sg3473
g3474
sg3475
g3476
sg3477
g3478
sg3479
g162
sg3480
g3481
sg3482
g6
(g7
S'QString'
p8997
(V0
p8998
tp8999
tp9000
Rp9001
sg3488
g3489
sg3490
g3491
sg3492
g6
(g7
S'QString'
p9002
(V64
p9003
tp9004
tp9005
Rp9006
sg3498
g3499
sg3500
g6
(g7
S'QString'
p9007
(V1.0
p9008
tp9009
tp9010
Rp9011
sg3506
g3507
sg3508
g3509
sg3510
g6
(g7
S'QString'
p9012
(V1.0
p9013
tp9014
tp9015
Rp9016
sg3516
g6
(g7
S'QString'
p9017
(V0
p9018
tp9019
tp9020
Rp9021
sg3522
g6
(g7
S'QString'
p9022
(V32
p9023
tp9024
tp9025
Rp9026
sg3528
g6
(g7
S'QString'
p9027
(V32
p9028
tp9029
tp9030
Rp9031
sg3534
g3535
sg3536
g6
(g7
S'QString'
p9032
(V50e-6
p9033
tp9034
tp9035
Rp9036
sg3542
g3543
sg3544
g6
(g7
S'QString'
p9037
(V0.75
p9038
tp9039
tp9040
Rp9041
sg3550
g3551
sg3552
g6
(g7
S'QString'
p9042
(Vtest_0245
p9043
tp9044
tp9045
Rp9046
ssg3558
g3559
sg3560
I32256
ssS'test_0246'
p9047
(dp9048
g3321
(dp9049
g3323
g6
(g7
S'QString'
p9050
(V5
p9051
tp9052
tp9053
Rp9054
sg3329
g6
(g7
S'QString'
p9055
(V0
p9056
tp9057
tp9058
Rp9059
sg3335
g3336
sg3337
g6
(g7
S'QString'
p9060
(V64
p9061
tp9062
tp9063
Rp9064
sg3343
g6
(g7
S'QString'
p9065
(V1
p9066
tp9067
tp9068
Rp9069
sg3355
g6
(g7
S'QString'
p9070
(V0.1
p9071
tp9072
tp9073
Rp9074
sg3361
S'OLT_ONLINE_JIT_LFJ_SPT'
p9075
sg3363
g6
(g7
S'QString'
p9076
(V300
p9077
tp9078
tp9079
Rp9080
sg3510
g6
(g7
S'QString'
p9081
(V1.0
p9082
tp9083
tp9084
Rp9085
sg3379
g6
(g7
S'QString'
p9086
(V156876
p9087
tp9088
tp9089
Rp9090
sg3373
g6
(g7
S'QString'
p9091
(V50e-6
p9092
tp9093
tp9094
Rp9095
sg3371
g3372
sg3385
g6
(g7
S'QString'
p9096
(V0.0005
p9097
tp9098
tp9099
Rp9100
sg3391
g6
(g7
S'QString'
p9101
(V0.005
p9102
tp9103
tp9104
Rp9105
sg3397
g6
(g7
S'QString'
p9106
(V156876
p9107
tp9108
tp9109
Rp9110
sg3403
g3404
sg3405
g6
(g7
S'QString'
p9111
(V1e-6
p9112
tp9113
tp9114
Rp9115
sg3411
g6
(g7
S'QString'
p9116
(V5e-3
p9117
tp9118
tp9119
Rp9120
sg3542
g3543
sg3423
g6
(g7
S'QString'
p9121
(V1e9
p9122
tp9123
tp9124
Rp9125
sg3429
g6
(g7
S'QString'
p9126
(V1
p9127
tp9128
tp9129
Rp9130
sg3534
g3535
sg3435
g6
(g7
S'QString'
p9131
(V180
p9132
tp9133
tp9134
Rp9135
sg3441
g6
(g7
S'QString'
p9136
(V4
p9137
tp9138
tp9139
Rp9140
sg3447
g6
(g7
S'QString'
p9141
(V1
p9142
tp9143
tp9144
Rp9145
sg3453
g3454
sg3455
g6
(g7
S'QString'
p9146
(V2
p9147
tp9148
tp9149
Rp9150
sg3461
g6
(g7
S'QString'
p9151
(V0
p9152
tp9153
tp9154
Rp9155
sg3467
g6
(g7
S'QString'
p9156
(V0
p9157
tp9158
tp9159
Rp9160
sg3369
g3370
sg3473
g3474
sg3475
g3476
sg3477
g3478
sg3479
g162
sg3480
g3481
sg3482
g6
(g7
S'QString'
p9161
(V0
p9162
tp9163
tp9164
Rp9165
sg3488
g3489
sg3490
g3491
sg3492
g6
(g7
S'QString'
p9166
(V64
p9167
tp9168
tp9169
Rp9170
sg3498
g3499
sg3500
g6
(g7
S'QString'
p9171
(V1.0
p9172
tp9173
tp9174
Rp9175
sg3506
g3507
sg3508
g3509
sg3516
g6
(g7
S'QString'
p9176
(V0
p9177
tp9178
tp9179
Rp9180
sg3522
g6
(g7
S'QString'
p9181
(V32
p9182
tp9183
tp9184
Rp9185
sg3528
g6
(g7
S'QString'
p9186
(V32
p9187
tp9188
tp9189
Rp9190
sg3349
g6
(g7
S'QString'
p9191
(V0.1
p9192
tp9193
tp9194
Rp9195
sg3536
g6
(g7
S'QString'
p9196
(V50e-6
p9197
tp9198
tp9199
Rp9200
sg3417
g6
(g7
S'QString'
p9201
(V0.9
p9202
tp9203
tp9204
Rp9205
sg3544
g6
(g7
S'QString'
p9206
(V0.75
p9207
tp9208
tp9209
Rp9210
sg3550
g3551
sg3552
g6
(g7
S'QString'
p9211
(Vtest_0246
p9212
tp9213
tp9214
Rp9215
ssg3558
g3559
sg3560
I32291
ssS'test_0247'
p9216
(dp9217
g3321
(dp9218
g3323
g6
(g7
S'QString'
p9219
(V5
p9220
tp9221
tp9222
Rp9223
sg3329
g6
(g7
S'QString'
p9224
(V0
p9225
tp9226
tp9227
Rp9228
sg3335
g3336
sg3337
g6
(g7
S'QString'
p9229
(V64
p9230
tp9231
tp9232
Rp9233
sg3343
g6
(g7
S'QString'
p9234
(V1
p9235
tp9236
tp9237
Rp9238
sg3349
g6
(g7
S'QString'
p9239
(V0.1
p9240
tp9241
tp9242
Rp9243
sg3355
g6
(g7
S'QString'
p9244
(V0.1
p9245
tp9246
tp9247
Rp9248
sg3361
S'OLT_ONLINE_JIT_LFJ_LNF'
p9249
sg3363
g6
(g7
S'QString'
p9250
(V300
p9251
tp9252
tp9253
Rp9254
sg3369
g3370
sg3371
g3372
sg3373
g6
(g7
S'QString'
p9255
(V50e-6
p9256
tp9257
tp9258
Rp9259
sg3379
g6
(g7
S'QString'
p9260
(V156876
p9261
tp9262
tp9263
Rp9264
sg3385
g6
(g7
S'QString'
p9265
(V0.0005
p9266
tp9267
tp9268
Rp9269
sg3391
g6
(g7
S'QString'
p9270
(V0.005
p9271
tp9272
tp9273
Rp9274
sg3397
g6
(g7
S'QString'
p9275
(V156876
p9276
tp9277
tp9278
Rp9279
sg3403
g3404
sg3405
g6
(g7
S'QString'
p9280
(V1e-6
p9281
tp9282
tp9283
Rp9284
sg3411
g6
(g7
S'QString'
p9285
(V5e-3
p9286
tp9287
tp9288
Rp9289
sg3417
g6
(g7
S'QString'
p9290
(V0.9
p9291
tp9292
tp9293
Rp9294
sg3423
g6
(g7
S'QString'
p9295
(V1e9
p9296
tp9297
tp9298
Rp9299
sg3429
g6
(g7
S'QString'
p9300
(V1
p9301
tp9302
tp9303
Rp9304
sg3435
g6
(g7
S'QString'
p9305
(V180
p9306
tp9307
tp9308
Rp9309
sg3441
g6
(g7
S'QString'
p9310
(V4
p9311
tp9312
tp9313
Rp9314
sg3447
g6
(g7
S'QString'
p9315
(V1
p9316
tp9317
tp9318
Rp9319
sg3453
g3454
sg3455
g6
(g7
S'QString'
p9320
(V2
p9321
tp9322
tp9323
Rp9324
sg3461
g6
(g7
S'QString'
p9325
(V0
p9326
tp9327
tp9328
Rp9329
sg3467
g6
(g7
S'QString'
p9330
(V0
p9331
tp9332
tp9333
Rp9334
sg3473
g3474
sg3475
g3476
sg3477
g3478
sg3479
g162
sg3480
g3481
sg3482
g6
(g7
S'QString'
p9335
(V0
p9336
tp9337
tp9338
Rp9339
sg3488
g3489
sg3490
g3491
sg3492
g6
(g7
S'QString'
p9340
(V64
p9341
tp9342
tp9343
Rp9344
sg3498
g3499
sg3500
g6
(g7
S'QString'
p9345
(V1.0
p9346
tp9347
tp9348
Rp9349
sg3506
g3507
sg3508
g3509
sg3510
g6
(g7
S'QString'
p9350
(V1.0
p9351
tp9352
tp9353
Rp9354
sg3516
g6
(g7
S'QString'
p9355
(V0
p9356
tp9357
tp9358
Rp9359
sg3522
g6
(g7
S'QString'
p9360
(V32
p9361
tp9362
tp9363
Rp9364
sg3528
g6
(g7
S'QString'
p9365
(V32
p9366
tp9367
tp9368
Rp9369
sg3534
g3535
sg3536
g6
(g7
S'QString'
p9370
(V50e-6
p9371
tp9372
tp9373
Rp9374
sg3542
g3543
sg3544
g6
(g7
S'QString'
p9375
(V0.75
p9376
tp9377
tp9378
Rp9379
sg3550
g3551
sg3552
g6
(g7
S'QString'
p9380
(Vtest_0247
p9381
tp9382
tp9383
Rp9384
ssg3558
g3559
sg3560
I32337
ssS'test_0240'
p9385
(dp9386
g3321
(dp9387
g3323
g6
(g7
S'QString'
p9388
(V5
p9389
tp9390
tp9391
Rp9392
sg3329
g6
(g7
S'QString'
p9393
(V0
p9394
tp9395
tp9396
Rp9397
sg3335
g3336
sg3337
g6
(g7
S'QString'
p9398
(V64
p9399
tp9400
tp9401
Rp9402
sg3343
g6
(g7
S'QString'
p9403
(V1
p9404
tp9405
tp9406
Rp9407
sg3355
g6
(g7
S'QString'
p9408
(V0.1
p9409
tp9410
tp9411
Rp9412
sg3361
S'OLT_ONLINE_INTERVAL_LFJ_LPT'
p9413
sg3363
g6
(g7
S'QString'
p9414
(V300
p9415
tp9416
tp9417
Rp9418
sg3510
g6
(g7
S'QString'
p9419
(V1.0
p9420
tp9421
tp9422
Rp9423
sg3379
g6
(g7
S'QString'
p9424
(V156876
p9425
tp9426
tp9427
Rp9428
sg3373
g6
(g7
S'QString'
p9429
(V50e-6
p9430
tp9431
tp9432
Rp9433
sg3371
g3372
sg3385
g6
(g7
S'QString'
p9434
(V0.0005
p9435
tp9436
tp9437
Rp9438
sg3391
g6
(g7
S'QString'
p9439
(V0.005
p9440
tp9441
tp9442
Rp9443
sg3397
g6
(g7
S'QString'
p9444
(V156876
p9445
tp9446
tp9447
Rp9448
sg3403
g3404
sg3405
g6
(g7
S'QString'
p9449
(V1e-6
p9450
tp9451
tp9452
Rp9453
sg3411
g6
(g7
S'QString'
p9454
(V5e-3
p9455
tp9456
tp9457
Rp9458
sg3542
g3543
sg3423
g6
(g7
S'QString'
p9459
(V1e9
p9460
tp9461
tp9462
Rp9463
sg3429
g6
(g7
S'QString'
p9464
(V1
p9465
tp9466
tp9467
Rp9468
sg3534
g3535
sg3435
g6
(g7
S'QString'
p9469
(V180
p9470
tp9471
tp9472
Rp9473
sg3441
g6
(g7
S'QString'
p9474
(V4
p9475
tp9476
tp9477
Rp9478
sg3447
g6
(g7
S'QString'
p9479
(V1
p9480
tp9481
tp9482
Rp9483
sg3453
g3454
sg3455
g6
(g7
S'QString'
p9484
(V2
p9485
tp9486
tp9487
Rp9488
sg3461
g6
(g7
S'QString'
p9489
(V0
p9490
tp9491
tp9492
Rp9493
sg3467
g6
(g7
S'QString'
p9494
(V0
p9495
tp9496
tp9497
Rp9498
sg3369
g3370
sg3473
g3474
sg3475
g3476
sg3477
g3478
sg3479
g162
sg3480
g3481
sg3482
g6
(g7
S'QString'
p9499
(V0
p9500
tp9501
tp9502
Rp9503
sg3488
g3489
sg3490
g3491
sg3492
g6
(g7
S'QString'
p9504
(V64
p9505
tp9506
tp9507
Rp9508
sg3498
g3499
sg3500
g6
(g7
S'QString'
p9509
(V1.0
p9510
tp9511
tp9512
Rp9513
sg3506
g3507
sg3508
g3509
sg3516
g6
(g7
S'QString'
p9514
(V0
p9515
tp9516
tp9517
Rp9518
sg3522
g6
(g7
S'QString'
p9519
(V32
p9520
tp9521
tp9522
Rp9523
sg3528
g6
(g7
S'QString'
p9524
(V32
p9525
tp9526
tp9527
Rp9528
sg3349
g6
(g7
S'QString'
p9529
(V0.1
p9530
tp9531
tp9532
Rp9533
sg3536
g6
(g7
S'QString'
p9534
(V50e-6
p9535
tp9536
tp9537
Rp9538
sg3417
g6
(g7
S'QString'
p9539
(V0.9
p9540
tp9541
tp9542
Rp9543
sg3544
g6
(g7
S'QString'
p9544
(V0.75
p9545
tp9546
tp9547
Rp9548
sg3550
g3551
sg3552
g6
(g7
S'QString'
p9549
(Vtest_0240
p9550
tp9551
tp9552
Rp9553
ssg3558
g3559
sg3560
I32058
ssS'test_0241'
p9554
(dp9555
g3321
(dp9556
g3323
g6
(g7
S'QString'
p9557
(V5
p9558
tp9559
tp9560
Rp9561
sg3329
g6
(g7
S'QString'
p9562
(V0
p9563
tp9564
tp9565
Rp9566
sg3335
g3336
sg3337
g6
(g7
S'QString'
p9567
(V64
p9568
tp9569
tp9570
Rp9571
sg3343
g6
(g7
S'QString'
p9572
(V1
p9573
tp9574
tp9575
Rp9576
sg3349
g6
(g7
S'QString'
p9577
(V0.1
p9578
tp9579
tp9580
Rp9581
sg3355
g6
(g7
S'QString'
p9582
(V0.1
p9583
tp9584
tp9585
Rp9586
sg3361
S'OLT_ONLINE_INTERVAL_LFJ_SPT'
p9587
sg3363
g6
(g7
S'QString'
p9588
(V300
p9589
tp9590
tp9591
Rp9592
sg3369
g3370
sg3371
g3372
sg3373
g6
(g7
S'QString'
p9593
(V50e-6
p9594
tp9595
tp9596
Rp9597
sg3379
g6
(g7
S'QString'
p9598
(V156876
p9599
tp9600
tp9601
Rp9602
sg3385
g6
(g7
S'QString'
p9603
(V0.0005
p9604
tp9605
tp9606
Rp9607
sg3391
g6
(g7
S'QString'
p9608
(V0.005
p9609
tp9610
tp9611
Rp9612
sg3397
g6
(g7
S'QString'
p9613
(V156876
p9614
tp9615
tp9616
Rp9617
sg3403
g3404
sg3405
g6
(g7
S'QString'
p9618
(V1e-6
p9619
tp9620
tp9621
Rp9622
sg3411
g6
(g7
S'QString'
p9623
(V5e-3
p9624
tp9625
tp9626
Rp9627
sg3417
g6
(g7
S'QString'
p9628
(V0.9
p9629
tp9630
tp9631
Rp9632
sg3423
g6
(g7
S'QString'
p9633
(V1e9
p9634
tp9635
tp9636
Rp9637
sg3429
g6
(g7
S'QString'
p9638
(V1
p9639
tp9640
tp9641
Rp9642
sg3435
g6
(g7
S'QString'
p9643
(V180
p9644
tp9645
tp9646
Rp9647
sg3441
g6
(g7
S'QString'
p9648
(V4
p9649
tp9650
tp9651
Rp9652
sg3447
g6
(g7
S'QString'
p9653
(V1
p9654
tp9655
tp9656
Rp9657
sg3453
g3454
sg3455
g6
(g7
S'QString'
p9658
(V2
p9659
tp9660
tp9661
Rp9662
sg3461
g6
(g7
S'QString'
p9663
(V0
p9664
tp9665
tp9666
Rp9667
sg3467
g6
(g7
S'QString'
p9668
(V0
p9669
tp9670
tp9671
Rp9672
sg3473
g3474
sg3475
g3476
sg3477
g3478
sg3479
g162
sg3480
g3481
sg3482
g6
(g7
S'QString'
p9673
(V0
p9674
tp9675
tp9676
Rp9677
sg3488
g3489
sg3490
g3491
sg3492
g6
(g7
S'QString'
p9678
(V64
p9679
tp9680
tp9681
Rp9682
sg3498
g3499
sg3500
g6
(g7
S'QString'
p9683
(V1.0
p9684
tp9685
tp9686
Rp9687
sg3506
g3507
sg3508
g3509
sg3510
g6
(g7
S'QString'
p9688
(V1.0
p9689
tp9690
tp9691
Rp9692
sg3516
g6
(g7
S'QString'
p9693
(V0
p9694
tp9695
tp9696
Rp9697
sg3522
g6
(g7
S'QString'
p9698
(V32
p9699
tp9700
tp9701
Rp9702
sg3528
g6
(g7
S'QString'
p9703
(V32
p9704
tp9705
tp9706
Rp9707
sg3534
g3535
sg3536
g6
(g7
S'QString'
p9708
(V50e-6
p9709
tp9710
tp9711
Rp9712
sg3542
g3543
sg3544
g6
(g7
S'QString'
p9713
(V0.75
p9714
tp9715
tp9716
Rp9717
sg3550
g3551
sg3552
g6
(g7
S'QString'
p9718
(Vtest_0241
p9719
tp9720
tp9721
Rp9722
ssg3558
g3559
sg3560
I32096
ssS'test_0242'
p9723
(dp9724
g3321
(dp9725
g3323
g6
(g7
S'QString'
p9726
(V5
p9727
tp9728
tp9729
Rp9730
sg3329
g6
(g7
S'QString'
p9731
(V0
p9732
tp9733
tp9734
Rp9735
sg3335
g3336
sg3337
g6
(g7
S'QString'
p9736
(V64
p9737
tp9738
tp9739
Rp9740
sg3343
g6
(g7
S'QString'
p9741
(V1
p9742
tp9743
tp9744
Rp9745
sg3355
g6
(g7
S'QString'
p9746
(V0.1
p9747
tp9748
tp9749
Rp9750
sg3361
S'OLT_ONLINE_INTERVAL_LFJ_LNF'
p9751
sg3363
g6
(g7
S'QString'
p9752
(V300
p9753
tp9754
tp9755
Rp9756
sg3510
g6
(g7
S'QString'
p9757
(V1.0
p9758
tp9759
tp9760
Rp9761
sg3379
g6
(g7
S'QString'
p9762
(V156876
p9763
tp9764
tp9765
Rp9766
sg3373
g6
(g7
S'QString'
p9767
(V50e-6
p9768
tp9769
tp9770
Rp9771
sg3371
g3372
sg3385
g6
(g7
S'QString'
p9772
(V0.0005
p9773
tp9774
tp9775
Rp9776
sg3391
g6
(g7
S'QString'
p9777
(V0.005
p9778
tp9779
tp9780
Rp9781
sg3397
g6
(g7
S'QString'
p9782
(V156876
p9783
tp9784
tp9785
Rp9786
sg3403
g3404
sg3405
g6
(g7
S'QString'
p9787
(V1e-6
p9788
tp9789
tp9790
Rp9791
sg3411
g6
(g7
S'QString'
p9792
(V5e-3
p9793
tp9794
tp9795
Rp9796
sg3542
g3543
sg3423
g6
(g7
S'QString'
p9797
(V1e9
p9798
tp9799
tp9800
Rp9801
sg3429
g6
(g7
S'QString'
p9802
(V1
p9803
tp9804
tp9805
Rp9806
sg3534
g3535
sg3435
g6
(g7
S'QString'
p9807
(V180
p9808
tp9809
tp9810
Rp9811
sg3441
g6
(g7
S'QString'
p9812
(V4
p9813
tp9814
tp9815
Rp9816
sg3447
g6
(g7
S'QString'
p9817
(V1
p9818
tp9819
tp9820
Rp9821
sg3453
g3454
sg3455
g6
(g7
S'QString'
p9822
(V2
p9823
tp9824
tp9825
Rp9826
sg3461
g6
(g7
S'QString'
p9827
(V0
p9828
tp9829
tp9830
Rp9831
sg3467
g6
(g7
S'QString'
p9832
(V0
p9833
tp9834
tp9835
Rp9836
sg3369
g3370
sg3473
g3474
sg3475
g3476
sg3477
g3478
sg3479
g162
sg3480
g3481
sg3482
g6
(g7
S'QString'
p9837
(V0
p9838
tp9839
tp9840
Rp9841
sg3488
g3489
sg3490
g3491
sg3492
g6
(g7
S'QString'
p9842
(V64
p9843
tp9844
tp9845
Rp9846
sg3498
g3499
sg3500
g6
(g7
S'QString'
p9847
(V1.0
p9848
tp9849
tp9850
Rp9851
sg3506
g3507
sg3508
g3509
sg3516
g6
(g7
S'QString'
p9852
(V0
p9853
tp9854
tp9855
Rp9856
sg3522
g6
(g7
S'QString'
p9857
(V32
p9858
tp9859
tp9860
Rp9861
sg3528
g6
(g7
S'QString'
p9862
(V32
p9863
tp9864
tp9865
Rp9866
sg3349
g6
(g7
S'QString'
p9867
(V0.1
p9868
tp9869
tp9870
Rp9871
sg3536
g6
(g7
S'QString'
p9872
(V50e-6
p9873
tp9874
tp9875
Rp9876
sg3417
g6
(g7
S'QString'
p9877
(V0.9
p9878
tp9879
tp9880
Rp9881
sg3544
g6
(g7
S'QString'
p9882
(V0.75
p9883
tp9884
tp9885
Rp9886
sg3550
g3551
sg3552
g6
(g7
S'QString'
p9887
(Vtest_0242
p9888
tp9889
tp9890
Rp9891
ssg3558
g3559
sg3560
I32131
ssS'test_0243'
p9892
(dp9893
g3321
(dp9894
g3323
g6
(g7
S'QString'
p9895
(V5
p9896
tp9897
tp9898
Rp9899
sg3329
g6
(g7
S'QString'
p9900
(V0
p9901
tp9902
tp9903
Rp9904
sg3335
g3336
sg3337
g6
(g7
S'QString'
p9905
(V64
p9906
tp9907
tp9908
Rp9909
sg3343
g6
(g7
S'QString'
p9910
(V1
p9911
tp9912
tp9913
Rp9914
sg3349
g6
(g7
S'QString'
p9915
(V0.1
p9916
tp9917
tp9918
Rp9919
sg3355
g6
(g7
S'QString'
p9920
(V0.1
p9921
tp9922
tp9923
Rp9924
sg3361
S'OLT_ONLINE_INTERVAL_EAF'
p9925
sg3363
g6
(g7
S'QString'
p9926
(V300
p9927
tp9928
tp9929
Rp9930
sg3369
g3370
sg3371
g3372
sg3373
g6
(g7
S'QString'
p9931
(V50e-6
p9932
tp9933
tp9934
Rp9935
sg3379
g6
(g7
S'QString'
p9936
(V156876
p9937
tp9938
tp9939
Rp9940
sg3385
g6
(g7
S'QString'
p9941
(V0.0005
p9942
tp9943
tp9944
Rp9945
sg3391
g6
(g7
S'QString'
p9946
(V0.005
p9947
tp9948
tp9949
Rp9950
sg3397
g6
(g7
S'QString'
p9951
(V156876
p9952
tp9953
tp9954
Rp9955
sg3403
g3404
sg3405
g6
(g7
S'QString'
p9956
(V1e-6
p9957
tp9958
tp9959
Rp9960
sg3411
g6
(g7
S'QString'
p9961
(V5e-3
p9962
tp9963
tp9964
Rp9965
sg3417
g6
(g7
S'QString'
p9966
(V0.9
p9967
tp9968
tp9969
Rp9970
sg3423
g6
(g7
S'QString'
p9971
(V1e9
p9972
tp9973
tp9974
Rp9975
sg3429
g6
(g7
S'QString'
p9976
(V1
p9977
tp9978
tp9979
Rp9980
sg3435
g6
(g7
S'QString'
p9981
(V180
p9982
tp9983
tp9984
Rp9985
sg3441
g6
(g7
S'QString'
p9986
(V4
p9987
tp9988
tp9989
Rp9990
sg3447
g6
(g7
S'QString'
p9991
(V1
p9992
tp9993
tp9994
Rp9995
sg3453
g3454
sg3455
g6
(g7
S'QString'
p9996
(V2
p9997
tp9998
tp9999
Rp10000
sg3461
g6
(g7
S'QString'
p10001
(V0
p10002
tp10003
tp10004
Rp10005
sg3467
g6
(g7
S'QString'
p10006
(V0
p10007
tp10008
tp10009
Rp10010
sg3473
g3474
sg3475
g3476
sg3477
g3478
sg3479
g162
sg3480
g3481
sg3482
g6
(g7
S'QString'
p10011
(V0
p10012
tp10013
tp10014
Rp10015
sg3488
g3489
sg3490
g3491
sg3492
g6
(g7
S'QString'
p10016
(V64
p10017
tp10018
tp10019
Rp10020
sg3498
g3499
sg3500
g6
(g7
S'QString'
p10021
(V1.0
p10022
tp10023
tp10024
Rp10025
sg3506
g3507
sg3508
g3509
sg3510
g6
(g7
S'QString'
p10026
(V1.0
p10027
tp10028
tp10029
Rp10030
sg3516
g6
(g7
S'QString'
p10031
(V0
p10032
tp10033
tp10034
Rp10035
sg3522
g6
(g7
S'QString'
p10036
(V32
p10037
tp10038
tp10039
Rp10040
sg3528
g6
(g7
S'QString'
p10041
(V32
p10042
tp10043
tp10044
Rp10045
sg3534
g3535
sg3536
g6
(g7
S'QString'
p10046
(V50e-6
p10047
tp10048
tp10049
Rp10050
sg3542
g3543
sg3544
g6
(g7
S'QString'
p10051
(V0.75
p10052
tp10053
tp10054
Rp10055
sg3550
g3551
sg3552
g6
(g7
S'QString'
p10056
(Vtest_0243
p10057
tp10058
tp10059
Rp10060
ssg3558
g3559
sg3560
I32186
ss.